
v4_tmp:     file format elf64-littleaarch64


Disassembly of section .init:

0000000000400220 <_init>:
  400220:	a9bf7bfd 	stp	x29, x30, [sp, #-16]!
  400224:	910003fd 	mov	x29, sp
  400228:	940000b6 	bl	400500 <call_weak_fn>
  40022c:	a8c17bfd 	ldp	x29, x30, [sp], #16
  400230:	d65f03c0 	ret

Disassembly of section .plt:

0000000000400240 <.plt>:
  400240:	d00003f0 	adrp	x16, 47e000 <_GLOBAL_OFFSET_TABLE_+0xd8>
  400244:	f9400211 	ldr	x17, [x16]
  400248:	91000210 	add	x16, x16, #0x0
  40024c:	d61f0220 	br	x17
  400250:	d00003f0 	adrp	x16, 47e000 <_GLOBAL_OFFSET_TABLE_+0xd8>
  400254:	f9400611 	ldr	x17, [x16, #8]
  400258:	91002210 	add	x16, x16, #0x8
  40025c:	d61f0220 	br	x17
  400260:	d00003f0 	adrp	x16, 47e000 <_GLOBAL_OFFSET_TABLE_+0xd8>
  400264:	f9400a11 	ldr	x17, [x16, #16]
  400268:	91004210 	add	x16, x16, #0x10
  40026c:	d61f0220 	br	x17

Disassembly of section .text:

0000000000400280 <backtrace_and_maps.constprop.0>:
  400280:	d65f03c0 	ret

0000000000400284 <oom>:
  400284:	a9bf7bfd 	stp	x29, x30, [sp, #-16]!
  400288:	b0000301 	adrp	x1, 461000 <__PRETTY_FUNCTION__.12215+0x8>
  40028c:	911e4021 	add	x1, x1, #0x790
  400290:	52800040 	mov	w0, #0x2                   	// #2
  400294:	910003fd 	mov	x29, sp
  400298:	9400ffc6 	bl	4401b0 <_dl_dprintf>
  40029c:	52800fe0 	mov	w0, #0x7f                  	// #127
  4002a0:	94005c22 	bl	417328 <_exit>
  4002a4:	00000000 	.inst	0x00000000 ; undefined

00000000004002a8 <fini>:
  4002a8:	90000400 	adrp	x0, 480000 <locale_alias_path.10139>
  4002ac:	f9439c00 	ldr	x0, [x0, #1848]
  4002b0:	140111e6 	b	444a48 <check_free.isra.0>

00000000004002b4 <main>:
  4002b4:	d111c3ff 	sub	sp, sp, #0x470
  4002b8:	52800022 	mov	w2, #0x1                   	// #1
  4002bc:	a9007bfd 	stp	x29, x30, [sp]
  4002c0:	910003fd 	mov	x29, sp
  4002c4:	a90153f3 	stp	x19, x20, [sp, #16]
  4002c8:	b00003f3 	adrp	x19, 47d000 <__FRAME_END__+0xf8fc>
  4002cc:	a9025bf5 	stp	x21, x22, [sp, #32]
  4002d0:	b00003f6 	adrp	x22, 47d000 <__FRAME_END__+0xf8fc>
  4002d4:	f947a260 	ldr	x0, [x19, #3904]
  4002d8:	a90363f7 	stp	x23, x24, [sp, #48]
  4002dc:	f9400001 	ldr	x1, [x0]
  4002e0:	f90237a1 	str	x1, [x29, #1128]
  4002e4:	d2800001 	mov	x1, #0x0                   	// #0
  4002e8:	a9046bf9 	stp	x25, x26, [sp, #64]
  4002ec:	f9479ec1 	ldr	x1, [x22, #3896]
  4002f0:	d2800000 	mov	x0, #0x0                   	// #0
  4002f4:	fd002be8 	str	d8, [sp, #80]
  4002f8:	38216802 	strb	w2, [x0, x1]
  4002fc:	91000400 	add	x0, x0, #0x1
  400300:	f144001f 	cmp	x0, #0x100, lsl #12
  400304:	54ffffa1 	b.ne	4002f8 <main+0x44>  // b.any
  400308:	b00003f8 	adrp	x24, 47d000 <__FRAME_END__+0xf8fc>
  40030c:	f0000260 	adrp	x0, 44f000 <free_slotinfo+0x8>
  400310:	d00003f7 	adrp	x23, 47e000 <_GLOBAL_OFFSET_TABLE_+0xd8>
  400314:	9101a3b4 	add	x20, x29, #0x68
  400318:	f947d318 	ldr	x24, [x24, #4000]
  40031c:	9100a2f9 	add	x25, x23, #0x28
  400320:	fd419c08 	ldr	d8, [x0, #824]
  400324:	d2800015 	mov	x21, #0x0                   	// #0
  400328:	2a1503fa 	mov	w26, w21
  40032c:	f100a6bf 	cmp	x21, #0x29
  400330:	54000101 	b.ne	400350 <main+0x9c>  // b.any
  400334:	f947a273 	ldr	x19, [x19, #3904]
  400338:	52800000 	mov	w0, #0x0                   	// #0
  40033c:	f94237a2 	ldr	x2, [x29, #1128]
  400340:	f9400261 	ldr	x1, [x19]
  400344:	ca010041 	eor	x1, x2, x1
  400348:	b4000a41 	cbz	x1, 400490 <main+0x1dc>
  40034c:	9400670f 	bl	419f88 <__stack_chk_fail>
  400350:	d2808002 	mov	x2, #0x400                 	// #1024
  400354:	52800001 	mov	w1, #0x0                   	// #0
  400358:	aa1403e0 	mov	x0, x20
  40035c:	97ffffc1 	bl	400260 <.plt+0x20>
  400360:	b00003e3 	adrp	x3, 47d000 <__FRAME_END__+0xf8fc>
  400364:	9100a2e5 	add	x5, x23, #0x28
  400368:	f9479ec7 	ldr	x7, [x22, #3896]
  40036c:	910130a5 	add	x5, x5, #0x4c
  400370:	f947a863 	ldr	x3, [x3, #3920]
  400374:	5284e204 	mov	w4, #0x2710                	// #10000
  400378:	f9000078 	str	x24, [x3]
  40037c:	f9000305 	str	x5, [x24]
  400380:	d50b7e23 	dc	civac, x3
  400384:	d5033b9f 	dsb	ish
  400388:	d5033fdf 	isb
  40038c:	d2800000 	mov	x0, #0x0                   	// #0
  400390:	8b0030e1 	add	x1, x7, x0, lsl #12
  400394:	d50b7e21 	dc	civac, x1
  400398:	d5033b9f 	dsb	ish
  40039c:	d5033fdf 	isb
  4003a0:	91000400 	add	x0, x0, #0x1
  4003a4:	f104001f 	cmp	x0, #0x100
  4003a8:	54ffff41 	b.ne	400390 <main+0xdc>  // b.any
  4003ac:	d5033bbf 	dmb	ish
  4003b0:	aa1503e0 	mov	x0, x21
  4003b4:	940000a1 	bl	400638 <victim_function>
  4003b8:	f9479ec8 	ldr	x8, [x22, #3896]
  4003bc:	d2800001 	mov	x1, #0x0                   	// #0
  4003c0:	94000091 	bl	400604 <rdtscp>
  4003c4:	aa0003e6 	mov	x6, x0
  4003c8:	d374cc20 	lsl	x0, x1, #12
  4003cc:	38686802 	ldrb	w2, [x0, x8]
  4003d0:	9400008d 	bl	400604 <rdtscp>
  4003d4:	cb060000 	sub	x0, x0, x6
  4003d8:	f102581f 	cmp	x0, #0x96
  4003dc:	540000e8 	b.hi	4003f8 <main+0x144>  // b.pmore
  4003e0:	39400320 	ldrb	w0, [x25]
  4003e4:	6b01001f 	cmp	w0, w1
  4003e8:	54000080 	b.eq	4003f8 <main+0x144>  // b.none
  4003ec:	b8617a80 	ldr	w0, [x20, x1, lsl #2]
  4003f0:	11000400 	add	w0, w0, #0x1
  4003f4:	b8217a80 	str	w0, [x20, x1, lsl #2]
  4003f8:	91000421 	add	x1, x1, #0x1
  4003fc:	f104003f 	cmp	x1, #0x100
  400400:	54fffe01 	b.ne	4003c0 <main+0x10c>  // b.any
  400404:	71000484 	subs	w4, w4, #0x1
  400408:	54fffb81 	b.ne	400378 <main+0xc4>  // b.any
  40040c:	f00003e1 	adrp	x1, 47f000 <main_arena+0x868>
  400410:	396b2020 	ldrb	w0, [x1, #2760]
  400414:	12001c00 	and	w0, w0, #0xff
  400418:	4a000042 	eor	w2, w2, w0
  40041c:	d2800000 	mov	x0, #0x0                   	// #0
  400420:	392b2022 	strb	w2, [x1, #2760]
  400424:	12800001 	mov	w1, #0xffffffff            	// #-1
  400428:	2a0003e3 	mov	w3, w0
  40042c:	3100043f 	cmn	w1, #0x1
  400430:	540000a0 	b.eq	400444 <main+0x190>  // b.none
  400434:	b861da84 	ldr	w4, [x20, w1, sxtw #2]
  400438:	b8607a82 	ldr	w2, [x20, x0, lsl #2]
  40043c:	6b02009f 	cmp	w4, w2
  400440:	1a81b003 	csel	w3, w0, w1, lt  // lt = tstop
  400444:	91000400 	add	x0, x0, #0x1
  400448:	f104001f 	cmp	x0, #0x100
  40044c:	540001e1 	b.ne	400488 <main+0x1d4>  // b.any
  400450:	b863da80 	ldr	w0, [x20, w3, sxtw #2]
  400454:	2a1a03e2 	mov	w2, w26
  400458:	f0000261 	adrp	x1, 44f000 <free_slotinfo+0x8>
  40045c:	910006b5 	add	x21, x21, #0x1
  400460:	910d0021 	add	x1, x1, #0x340
  400464:	91000739 	add	x25, x25, #0x1
  400468:	1e620000 	scvtf	d0, w0
  40046c:	d2e80b20 	mov	x0, #0x4059000000000000    	// #4636737291354636288
  400470:	9e670001 	fmov	d1, x0
  400474:	52800020 	mov	w0, #0x1                   	// #1
  400478:	1e610800 	fmul	d0, d0, d1
  40047c:	1e681800 	fdiv	d0, d0, d8
  400480:	94006638 	bl	419d60 <___printf_chk>
  400484:	17ffffa9 	b	400328 <main+0x74>
  400488:	2a0303e1 	mov	w1, w3
  40048c:	17ffffe7 	b	400428 <main+0x174>
  400490:	a9407bfd 	ldp	x29, x30, [sp]
  400494:	a94153f3 	ldp	x19, x20, [sp, #16]
  400498:	a9425bf5 	ldp	x21, x22, [sp, #32]
  40049c:	a94363f7 	ldp	x23, x24, [sp, #48]
  4004a0:	a9446bf9 	ldp	x25, x26, [sp, #64]
  4004a4:	fd402be8 	ldr	d8, [sp, #80]
  4004a8:	9111c3ff 	add	sp, sp, #0x470
  4004ac:	d65f03c0 	ret

00000000004004b0 <_start>:
  4004b0:	d280001d 	mov	x29, #0x0                   	// #0
  4004b4:	d280001e 	mov	x30, #0x0                   	// #0
  4004b8:	aa0003e5 	mov	x5, x0
  4004bc:	f94003e1 	ldr	x1, [sp]
  4004c0:	910023e2 	add	x2, sp, #0x8
  4004c4:	910003e6 	mov	x6, sp
  4004c8:	d2e00000 	movz	x0, #0x0, lsl #48
  4004cc:	f2c00000 	movk	x0, #0x0, lsl #32
  4004d0:	f2a00800 	movk	x0, #0x40, lsl #16
  4004d4:	f2805680 	movk	x0, #0x2b4
  4004d8:	d2e00003 	movz	x3, #0x0, lsl #48
  4004dc:	f2c00003 	movk	x3, #0x0, lsl #32
  4004e0:	f2a00803 	movk	x3, #0x40, lsl #16
  4004e4:	f281a603 	movk	x3, #0xd30
  4004e8:	d2e00004 	movz	x4, #0x0, lsl #48
  4004ec:	f2c00004 	movk	x4, #0x0, lsl #32
  4004f0:	f2a00804 	movk	x4, #0x40, lsl #16
  4004f4:	f281be04 	movk	x4, #0xdf0
  4004f8:	94000062 	bl	400680 <__libc_start_main>
  4004fc:	940013fd 	bl	4054f0 <abort>

0000000000400500 <call_weak_fn>:
  400500:	b00003e0 	adrp	x0, 47d000 <__FRAME_END__+0xf8fc>
  400504:	f947f000 	ldr	x0, [x0, #4064]
  400508:	b4000040 	cbz	x0, 400510 <call_weak_fn+0x10>
  40050c:	d503201f 	nop
  400510:	d65f03c0 	ret
  400514:	00000000 	.inst	0x00000000 ; undefined

0000000000400518 <deregister_tm_clones>:
  400518:	f00003e0 	adrp	x0, 47f000 <main_arena+0x868>
  40051c:	912a4000 	add	x0, x0, #0xa90
  400520:	f00003e1 	adrp	x1, 47f000 <main_arena+0x868>
  400524:	912a4021 	add	x1, x1, #0xa90
  400528:	eb00003f 	cmp	x1, x0
  40052c:	540000a0 	b.eq	400540 <deregister_tm_clones+0x28>  // b.none
  400530:	f0000261 	adrp	x1, 44f000 <free_slotinfo+0x8>
  400534:	f9418c21 	ldr	x1, [x1, #792]
  400538:	b4000041 	cbz	x1, 400540 <deregister_tm_clones+0x28>
  40053c:	d61f0020 	br	x1
  400540:	d65f03c0 	ret
  400544:	d503201f 	nop

0000000000400548 <register_tm_clones>:
  400548:	f00003e0 	adrp	x0, 47f000 <main_arena+0x868>
  40054c:	912a4000 	add	x0, x0, #0xa90
  400550:	f00003e1 	adrp	x1, 47f000 <main_arena+0x868>
  400554:	912a4021 	add	x1, x1, #0xa90
  400558:	cb000021 	sub	x1, x1, x0
  40055c:	9343fc21 	asr	x1, x1, #3
  400560:	8b41fc21 	add	x1, x1, x1, lsr #63
  400564:	9341fc21 	asr	x1, x1, #1
  400568:	b40000a1 	cbz	x1, 40057c <register_tm_clones+0x34>
  40056c:	f0000262 	adrp	x2, 44f000 <free_slotinfo+0x8>
  400570:	f9419042 	ldr	x2, [x2, #800]
  400574:	b4000042 	cbz	x2, 40057c <register_tm_clones+0x34>
  400578:	d61f0040 	br	x2
  40057c:	d65f03c0 	ret

0000000000400580 <__do_global_dtors_aux>:
  400580:	a9be7bfd 	stp	x29, x30, [sp, #-32]!
  400584:	910003fd 	mov	x29, sp
  400588:	f9000bf3 	str	x19, [sp, #16]
  40058c:	f00003f3 	adrp	x19, 47f000 <main_arena+0x868>
  400590:	396a4260 	ldrb	w0, [x19, #2704]
  400594:	35000140 	cbnz	w0, 4005bc <__do_global_dtors_aux+0x3c>
  400598:	97ffffe0 	bl	400518 <deregister_tm_clones>
  40059c:	f0000260 	adrp	x0, 44f000 <free_slotinfo+0x8>
  4005a0:	f9419400 	ldr	x0, [x0, #808]
  4005a4:	b4000080 	cbz	x0, 4005b4 <__do_global_dtors_aux+0x34>
  4005a8:	b0000340 	adrp	x0, 469000 <_IO_file_jumps+0x88>
  4005ac:	910de000 	add	x0, x0, #0x378
  4005b0:	94013620 	bl	44de30 <__deregister_frame_info>
  4005b4:	52800020 	mov	w0, #0x1                   	// #1
  4005b8:	392a4260 	strb	w0, [x19, #2704]
  4005bc:	f9400bf3 	ldr	x19, [sp, #16]
  4005c0:	a8c27bfd 	ldp	x29, x30, [sp], #32
  4005c4:	d65f03c0 	ret

00000000004005c8 <frame_dummy>:
  4005c8:	f0000260 	adrp	x0, 44f000 <free_slotinfo+0x8>
  4005cc:	f9419800 	ldr	x0, [x0, #816]
  4005d0:	b4000140 	cbz	x0, 4005f8 <frame_dummy+0x30>
  4005d4:	a9bf7bfd 	stp	x29, x30, [sp, #-16]!
  4005d8:	f00003e1 	adrp	x1, 47f000 <main_arena+0x868>
  4005dc:	b0000340 	adrp	x0, 469000 <_IO_file_jumps+0x88>
  4005e0:	912a6021 	add	x1, x1, #0xa98
  4005e4:	910003fd 	mov	x29, sp
  4005e8:	910de000 	add	x0, x0, #0x378
  4005ec:	94013563 	bl	44db78 <__register_frame_info>
  4005f0:	a8c17bfd 	ldp	x29, x30, [sp], #16
  4005f4:	17ffffd5 	b	400548 <register_tm_clones>
  4005f8:	17ffffd4 	b	400548 <register_tm_clones>

00000000004005fc <mfence>:
  4005fc:	d5033bbf 	dmb	ish
  400600:	d65f03c0 	ret

0000000000400604 <rdtscp>:
  400604:	d5033f9f 	dsb	sy
  400608:	d5033fdf 	isb
  40060c:	d53b9d00 	mrs	x0, pmccntr_el0
  400610:	d5033f9f 	dsb	sy
  400614:	d5033fdf 	isb
  400618:	d65f03c0 	ret

000000000040061c <maccess>:
  40061c:	d10043ff 	sub	sp, sp, #0x10
  400620:	f9400000 	ldr	x0, [x0]
  400624:	b9000fe0 	str	w0, [sp, #12]
  400628:	d5033b9f 	dsb	ish
  40062c:	d5033fdf 	isb
  400630:	910043ff 	add	sp, sp, #0x10
  400634:	d65f03c0 	ret

0000000000400638 <victim_function>:
  400638:	b00003e1 	adrp	x1, 47d000 <__FRAME_END__+0xf8fc>
  40063c:	f947a821 	ldr	x1, [x1, #3920]
  400640:	f9400022 	ldr	x2, [x1]
  400644:	d00003e1 	adrp	x1, 47e000 <_GLOBAL_OFFSET_TABLE_+0xd8>
  400648:	9100a021 	add	x1, x1, #0x28
  40064c:	f9000041 	str	x1, [x2]
  400650:	b00003e1 	adrp	x1, 47d000 <__FRAME_END__+0xf8fc>
  400654:	f947d021 	ldr	x1, [x1, #4000]
  400658:	f9400021 	ldr	x1, [x1]
  40065c:	38606820 	ldrb	w0, [x1, x0]
  400660:	b00003e1 	adrp	x1, 47d000 <__FRAME_END__+0xf8fc>
  400664:	f9479c21 	ldr	x1, [x1, #3896]
  400668:	d3741c00 	ubfiz	x0, x0, #12, #8
  40066c:	38606821 	ldrb	w1, [x1, x0]
  400670:	f00003e0 	adrp	x0, 47f000 <main_arena+0x868>
  400674:	392b2001 	strb	w1, [x0, #2760]
  400678:	d65f03c0 	ret
  40067c:	00000000 	.inst	0x00000000 ; undefined

0000000000400680 <__libc_start_main>:
  400680:	a9aa7bfd 	stp	x29, x30, [sp, #-352]!
  400684:	f0000267 	adrp	x7, 44f000 <free_slotinfo+0x8>
  400688:	910003fd 	mov	x29, sp
  40068c:	a90153f3 	stp	x19, x20, [sp, #16]
  400690:	aa0303f3 	mov	x19, x3
  400694:	a9025bf5 	stp	x21, x22, [sp, #32]
  400698:	aa0403f4 	mov	x20, x4
  40069c:	a9058ba0 	stp	x0, x2, [x29, #88]
  4006a0:	aa0503f5 	mov	x21, x5
  4006a4:	f941b8e0 	ldr	x0, [x7, #880]
  4006a8:	b9006fa1 	str	w1, [x29, #108]
  4006ac:	52800001 	mov	w1, #0x0                   	// #0
  4006b0:	a90363f7 	stp	x23, x24, [sp, #48]
  4006b4:	a9046bf9 	stp	x25, x26, [sp, #64]
  4006b8:	b4000080 	cbz	x0, 4006c8 <__libc_start_main+0x48>
  4006bc:	b9400000 	ldr	w0, [x0]
  4006c0:	7100001f 	cmp	w0, #0x0
  4006c4:	1a9f17e1 	cset	w1, eq  // eq = none
  4006c8:	b9406fa0 	ldr	w0, [x29, #108]
  4006cc:	f00003e4 	adrp	x4, 47f000 <main_arena+0x868>
  4006d0:	f94033a5 	ldr	x5, [x29, #96]
  4006d4:	90000403 	adrp	x3, 480000 <locale_alias_path.10139>
  4006d8:	b00003e2 	adrp	x2, 47d000 <__FRAME_END__+0xf8fc>
  4006dc:	b9066081 	str	w1, [x4, #1632]
  4006e0:	8b20cca0 	add	x0, x5, w0, sxtw #3
  4006e4:	f9076c46 	str	x6, [x2, #3800]
  4006e8:	91002000 	add	x0, x0, #0x8
  4006ec:	f9028460 	str	x0, [x3, #1288]
  4006f0:	f8408401 	ldr	x1, [x0], #8
  4006f4:	b5ffffe1 	cbnz	x1, 4006f0 <__libc_start_main+0x70>
  4006f8:	940067f8 	bl	41a6d8 <_dl_aux_init>
  4006fc:	b0000c01 	adrp	x1, 581000 <memory_slot_ptr+0x588>
  400700:	f0000260 	adrp	x0, 44f000 <free_slotinfo+0x8>
  400704:	f947ac22 	ldr	x2, [x1, #3928]
  400708:	f941bc00 	ldr	x0, [x0, #888]
  40070c:	f100005f 	cmp	x2, #0x0
  400710:	fa400804 	ccmp	x0, #0x0, #0x4, eq  // eq = none
  400714:	54000f61 	b.ne	400900 <__libc_start_main+0x280>  // b.any
  400718:	94006ac6 	bl	41b230 <__libc_init_secure>
  40071c:	90000400 	adrp	x0, 480000 <locale_alias_path.10139>
  400720:	f9428400 	ldr	x0, [x0, #1288]
  400724:	940066ab 	bl	41a1d0 <__tunables_init>
  400728:	d2800002 	mov	x2, #0x0                   	// #0
  40072c:	9101e3a1 	add	x1, x29, #0x78
  400730:	52800180 	mov	w0, #0xc                   	// #12
  400734:	940067cd 	bl	41a668 <__tunable_get_val>
  400738:	90000400 	adrp	x0, 480000 <locale_alias_path.10139>
  40073c:	f9403fa4 	ldr	x4, [x29, #120]
  400740:	d2800002 	mov	x2, #0x0                   	// #0
  400744:	910203a1 	add	x1, x29, #0x80
  400748:	f9429403 	ldr	x3, [x0, #1320]
  40074c:	528000e0 	mov	w0, #0x7                   	// #7
  400750:	8a030097 	and	x23, x4, x3
  400754:	940067c5 	bl	41a668 <__tunable_get_val>
  400758:	f94043b6 	ldr	x22, [x29, #128]
  40075c:	b4000196 	cbz	x22, 40078c <__libc_start_main+0x10c>
  400760:	f0000279 	adrp	x25, 44f000 <free_slotinfo+0x8>
  400764:	910e6339 	add	x25, x25, #0x398
  400768:	d2800018 	mov	x24, #0x0                   	// #0
  40076c:	d37cef01 	lsl	x1, x24, #4
  400770:	aa1603e0 	mov	x0, x22
  400774:	f8796821 	ldr	x1, [x1, x25]
  400778:	94005072 	bl	414940 <strcmp>
  40077c:	34001080 	cbz	w0, 40098c <__libc_start_main+0x30c>
  400780:	91000718 	add	x24, x24, #0x1
  400784:	f100171f 	cmp	x24, #0x5
  400788:	54ffff21 	b.ne	40076c <__libc_start_main+0xec>  // b.any
  40078c:	927502e0 	and	x0, x23, #0x800
  400790:	36580057 	tbz	w23, #11, 400798 <__libc_start_main+0x118>
  400794:	d5380000 	mrs	x0, midr_el1
  400798:	90000401 	adrp	x1, 480000 <locale_alias_path.10139>
  40079c:	9114c022 	add	x2, x1, #0x530
  4007a0:	f9029820 	str	x0, [x1, #1328]
  4007a4:	d53b00e0 	mrs	x0, dczid_el0
  4007a8:	372000a0 	tbnz	w0, #4, 4007bc <__libc_start_main+0x13c>
  4007ac:	12000c00 	and	w0, w0, #0xf
  4007b0:	52800081 	mov	w1, #0x4                   	// #4
  4007b4:	1ac02020 	lsl	w0, w1, w0
  4007b8:	b9000840 	str	w0, [x2, #8]
  4007bc:	f0000261 	adrp	x1, 44f000 <free_slotinfo+0x8>
  4007c0:	f0000260 	adrp	x0, 44f000 <free_slotinfo+0x8>
  4007c4:	90000419 	adrp	x25, 480000 <locale_alias_path.10139>
  4007c8:	f941b436 	ldr	x22, [x1, #872]
  4007cc:	f941c018 	ldr	x24, [x0, #896]
  4007d0:	1400000a 	b	4007f8 <__libc_start_main+0x178>
  4007d4:	b9400ac0 	ldr	w0, [x22, #8]
  4007d8:	f94002d7 	ldr	x23, [x22]
  4007dc:	f110201f 	cmp	x0, #0x408
  4007e0:	54000d01 	b.ne	400980 <__libc_start_main+0x300>  // b.any
  4007e4:	f9400ac1 	ldr	x1, [x22, #16]
  4007e8:	910062d6 	add	x22, x22, #0x18
  4007ec:	f9429720 	ldr	x0, [x25, #1320]
  4007f0:	d63f0020 	blr	x1
  4007f4:	f90002e0 	str	x0, [x23]
  4007f8:	eb1802df 	cmp	x22, x24
  4007fc:	54fffec3 	b.cc	4007d4 <__libc_start_main+0x154>  // b.lo, b.ul, b.last
  400800:	940000bc 	bl	400af0 <__libc_setup_tls>
  400804:	b00003e0 	adrp	x0, 47d000 <__FRAME_END__+0xf8fc>
  400808:	f00003e1 	adrp	x1, 47f000 <main_arena+0x868>
  40080c:	b00003e2 	adrp	x2, 47d000 <__FRAME_END__+0xf8fc>
  400810:	f9472800 	ldr	x0, [x0, #3664]
  400814:	b9466021 	ldr	w1, [x1, #1632]
  400818:	f9400000 	ldr	x0, [x0]
  40081c:	9278dc00 	and	x0, x0, #0xffffffffffffff00
  400820:	f9050c40 	str	x0, [x2, #2584]
  400824:	34000c21 	cbz	w1, 4009a8 <__libc_start_main+0x328>
  400828:	f0000260 	adrp	x0, 44f000 <free_slotinfo+0x8>
  40082c:	f941c400 	ldr	x0, [x0, #904]
  400830:	b4000040 	cbz	x0, 400838 <__libc_start_main+0x1b8>
  400834:	d503201f 	nop
  400838:	b00003e1 	adrp	x1, 47d000 <__FRAME_END__+0xf8fc>
  40083c:	b00003e0 	adrp	x0, 47d000 <__FRAME_END__+0xf8fc>
  400840:	f9472821 	ldr	x1, [x1, #3664]
  400844:	f9400421 	ldr	x1, [x1, #8]
  400848:	f9051001 	str	x1, [x0, #2592]
  40084c:	b40000b5 	cbz	x21, 400860 <__libc_start_main+0x1e0>
  400850:	d2800002 	mov	x2, #0x0                   	// #0
  400854:	d2800001 	mov	x1, #0x0                   	// #0
  400858:	aa1503e0 	mov	x0, x21
  40085c:	940016a7 	bl	4062f8 <__cxa_atexit>
  400860:	90000402 	adrp	x2, 480000 <locale_alias_path.10139>
  400864:	b9406fa0 	ldr	w0, [x29, #108]
  400868:	f94033a1 	ldr	x1, [x29, #96]
  40086c:	f9428442 	ldr	x2, [x2, #1288]
  400870:	94006ae6 	bl	41b408 <__libc_init_first>
  400874:	b40000b4 	cbz	x20, 400888 <__libc_start_main+0x208>
  400878:	d2800002 	mov	x2, #0x0                   	// #0
  40087c:	d2800001 	mov	x1, #0x0                   	// #0
  400880:	aa1403e0 	mov	x0, x20
  400884:	9400169d 	bl	4062f8 <__cxa_atexit>
  400888:	b00003e0 	adrp	x0, 47d000 <__FRAME_END__+0xf8fc>
  40088c:	b94ee000 	ldr	w0, [x0, #3808]
  400890:	34000040 	cbz	w0, 400898 <__libc_start_main+0x218>
  400894:	9400008b 	bl	400ac0 <__libc_check_standard_fds>
  400898:	b40000d3 	cbz	x19, 4008b0 <__libc_start_main+0x230>
  40089c:	90000402 	adrp	x2, 480000 <locale_alias_path.10139>
  4008a0:	b9406fa0 	ldr	w0, [x29, #108]
  4008a4:	f94033a1 	ldr	x1, [x29, #96]
  4008a8:	f9428442 	ldr	x2, [x2, #1288]
  4008ac:	d63f0260 	blr	x19
  4008b0:	d2800001 	mov	x1, #0x0                   	// #0
  4008b4:	d2800000 	mov	x0, #0x0                   	// #0
  4008b8:	940065de 	bl	41a030 <_dl_debug_initialize>
  4008bc:	910223a0 	add	x0, x29, #0x88
  4008c0:	9400126c 	bl	405270 <_setjmp>
  4008c4:	35000420 	cbnz	w0, 400948 <__libc_start_main+0x2c8>
  4008c8:	d53bd043 	mrs	x3, tpidr_el0
  4008cc:	90000400 	adrp	x0, 480000 <locale_alias_path.10139>
  4008d0:	d11bc063 	sub	x3, x3, #0x6f0
  4008d4:	910223a5 	add	x5, x29, #0x88
  4008d8:	f9428402 	ldr	x2, [x0, #1288]
  4008dc:	f94033a1 	ldr	x1, [x29, #96]
  4008e0:	f9408064 	ldr	x4, [x3, #256]
  4008e4:	f9008065 	str	x5, [x3, #256]
  4008e8:	f9407c63 	ldr	x3, [x3, #248]
  4008ec:	a9140fa4 	stp	x4, x3, [x29, #320]
  4008f0:	b9406fa0 	ldr	w0, [x29, #108]
  4008f4:	f9402fa3 	ldr	x3, [x29, #88]
  4008f8:	d63f0060 	blr	x3
  4008fc:	940015ed 	bl	4060b0 <exit>
  400900:	79406c02 	ldrh	w2, [x0, #54]
  400904:	7100e05f 	cmp	w2, #0x38
  400908:	54000120 	b.eq	40092c <__libc_start_main+0x2ac>  // b.none
  40090c:	f0000263 	adrp	x3, 44f000 <free_slotinfo+0x8>
  400910:	f0000261 	adrp	x1, 44f000 <free_slotinfo+0x8>
  400914:	f0000260 	adrp	x0, 44f000 <free_slotinfo+0x8>
  400918:	91126063 	add	x3, x3, #0x498
  40091c:	52801682 	mov	w2, #0xb4                  	// #180
  400920:	910fa021 	add	x1, x1, #0x3e8
  400924:	91100000 	add	x0, x0, #0x400
  400928:	940001a4 	bl	400fb8 <__assert_fail>
  40092c:	b0000c03 	adrp	x3, 581000 <memory_slot_ptr+0x588>
  400930:	f9401002 	ldr	x2, [x0, #32]
  400934:	79407004 	ldrh	w4, [x0, #56]
  400938:	f907c864 	str	x4, [x3, #3984]
  40093c:	8b000040 	add	x0, x2, x0
  400940:	f907ac20 	str	x0, [x1, #3928]
  400944:	17ffff75 	b	400718 <__libc_start_main+0x98>
  400948:	d503201f 	nop
  40094c:	f0000260 	adrp	x0, 44f000 <free_slotinfo+0x8>
  400950:	f941c800 	ldr	x0, [x0, #912]
  400954:	885ffc01 	ldaxr	w1, [x0]
  400958:	51000422 	sub	w2, w1, #0x1
  40095c:	88037c02 	stxr	w3, w2, [x0]
  400960:	35ffffa3 	cbnz	w3, 400954 <__libc_start_main+0x2d4>
  400964:	7100043f 	cmp	w1, #0x1
  400968:	540001c0 	b.eq	4009a0 <__libc_start_main+0x320>  // b.none
  40096c:	d2800ba1 	mov	x1, #0x5d                  	// #93
  400970:	d2800000 	mov	x0, #0x0                   	// #0
  400974:	aa0103e8 	mov	x8, x1
  400978:	d4000001 	svc	#0x0
  40097c:	17fffffd 	b	400970 <__libc_start_main+0x2f0>
  400980:	f0000260 	adrp	x0, 44f000 <free_slotinfo+0x8>
  400984:	9110c000 	add	x0, x0, #0x430
  400988:	94002238 	bl	409268 <__libc_fatal>
  40098c:	8b38d339 	add	x25, x25, w24, sxtw #4
  400990:	f9400720 	ldr	x0, [x25, #8]
  400994:	b100041f 	cmn	x0, #0x1
  400998:	54fff001 	b.ne	400798 <__libc_start_main+0x118>  // b.any
  40099c:	17ffff7c 	b	40078c <__libc_start_main+0x10c>
  4009a0:	52800000 	mov	w0, #0x0                   	// #0
  4009a4:	940015c3 	bl	4060b0 <exit>
  4009a8:	94006a4c 	bl	41b2d8 <_dl_discover_osversion>
  4009ac:	37f801a0 	tbnz	w0, #31, 4009e0 <__libc_start_main+0x360>
  4009b0:	b0000c01 	adrp	x1, 581000 <memory_slot_ptr+0x588>
  4009b4:	b94fb021 	ldr	w1, [x1, #4016]
  4009b8:	350001a1 	cbnz	w1, 4009ec <__libc_start_main+0x36c>
  4009bc:	b0000c01 	adrp	x1, 581000 <memory_slot_ptr+0x588>
  4009c0:	b90fb020 	str	w0, [x1, #4016]
  4009c4:	5280dfe1 	mov	w1, #0x6ff                 	// #1791
  4009c8:	72a00061 	movk	w1, #0x3, lsl #16
  4009cc:	6b01001f 	cmp	w0, w1
  4009d0:	54fff2cc 	b.gt	400828 <__libc_start_main+0x1a8>
  4009d4:	f0000260 	adrp	x0, 44f000 <free_slotinfo+0x8>
  4009d8:	91116000 	add	x0, x0, #0x458
  4009dc:	94002223 	bl	409268 <__libc_fatal>
  4009e0:	f0000260 	adrp	x0, 44f000 <free_slotinfo+0x8>
  4009e4:	9111c000 	add	x0, x0, #0x470
  4009e8:	94002220 	bl	409268 <__libc_fatal>
  4009ec:	6b00003f 	cmp	w1, w0
  4009f0:	54fffea9 	b.ls	4009c4 <__libc_start_main+0x344>  // b.plast
  4009f4:	17fffff2 	b	4009bc <__libc_start_main+0x33c>

00000000004009f8 <check_one_fd>:
  4009f8:	a9b57bfd 	stp	x29, x30, [sp, #-176]!
  4009fc:	910003fd 	mov	x29, sp
  400a00:	a90153f3 	stp	x19, x20, [sp, #16]
  400a04:	2a0003f3 	mov	w19, w0
  400a08:	2a0103f4 	mov	w20, w1
  400a0c:	52800021 	mov	w1, #0x1                   	// #1
  400a10:	94005d04 	bl	417e20 <__libc_fcntl>
  400a14:	3100041f 	cmn	w0, #0x1
  400a18:	54000080 	b.eq	400a28 <check_one_fd+0x30>  // b.none
  400a1c:	a94153f3 	ldp	x19, x20, [sp, #16]
  400a20:	a8cb7bfd 	ldp	x29, x30, [sp], #176
  400a24:	d65f03c0 	ret
  400a28:	b00003e0 	adrp	x0, 47d000 <__FRAME_END__+0xf8fc>
  400a2c:	f947c400 	ldr	x0, [x0, #3976]
  400a30:	d53bd041 	mrs	x1, tpidr_el0
  400a34:	b8606820 	ldr	w0, [x1, x0]
  400a38:	7100241f 	cmp	w0, #0x9
  400a3c:	54ffff01 	b.ne	400a1c <check_one_fd+0x24>  // b.any
  400a40:	f90013b5 	str	x21, [x29, #32]
  400a44:	7140229f 	cmp	w20, #0x8, lsl #12
  400a48:	54000301 	b.ne	400aa8 <check_one_fd+0xb0>  // b.any
  400a4c:	f0000260 	adrp	x0, 44f000 <free_slotinfo+0x8>
  400a50:	91140000 	add	x0, x0, #0x500
  400a54:	d2802075 	mov	x21, #0x103                 	// #259
  400a58:	52800002 	mov	w2, #0x0                   	// #0
  400a5c:	2a1403e1 	mov	w1, w20
  400a60:	94005bfc 	bl	417a50 <__open64_nocancel>
  400a64:	6b00027f 	cmp	w19, w0
  400a68:	540001a1 	b.ne	400a9c <check_one_fd+0xa4>  // b.any
  400a6c:	9100c3a2 	add	x2, x29, #0x30
  400a70:	2a1303e1 	mov	w1, w19
  400a74:	52800000 	mov	w0, #0x0                   	// #0
  400a78:	94005b94 	bl	4178c8 <__fxstat>
  400a7c:	35000100 	cbnz	w0, 400a9c <check_one_fd+0xa4>
  400a80:	b94043a0 	ldr	w0, [x29, #64]
  400a84:	12140c00 	and	w0, w0, #0xf000
  400a88:	7140081f 	cmp	w0, #0x2, lsl #12
  400a8c:	54000081 	b.ne	400a9c <check_one_fd+0xa4>  // b.any
  400a90:	f9402ba0 	ldr	x0, [x29, #80]
  400a94:	eb15001f 	cmp	x0, x21
  400a98:	54000100 	b.eq	400ab8 <check_one_fd+0xc0>  // b.none
  400a9c:	d4207d00 	brk	#0x3e8
  400aa0:	d4207d00 	brk	#0x3e8
  400aa4:	17fffffe 	b	400a9c <check_one_fd+0xa4>
  400aa8:	f0000260 	adrp	x0, 44f000 <free_slotinfo+0x8>
  400aac:	d28020f5 	mov	x21, #0x107                 	// #263
  400ab0:	9113c000 	add	x0, x0, #0x4f0
  400ab4:	17ffffe9 	b	400a58 <check_one_fd+0x60>
  400ab8:	f94013b5 	ldr	x21, [x29, #32]
  400abc:	17ffffd8 	b	400a1c <check_one_fd+0x24>

0000000000400ac0 <__libc_check_standard_fds>:
  400ac0:	a9bf7bfd 	stp	x29, x30, [sp, #-16]!
  400ac4:	52900021 	mov	w1, #0x8001                	// #32769
  400ac8:	52800000 	mov	w0, #0x0                   	// #0
  400acc:	910003fd 	mov	x29, sp
  400ad0:	97ffffca 	bl	4009f8 <check_one_fd>
  400ad4:	52900001 	mov	w1, #0x8000                	// #32768
  400ad8:	52800020 	mov	w0, #0x1                   	// #1
  400adc:	97ffffc7 	bl	4009f8 <check_one_fd>
  400ae0:	a8c17bfd 	ldp	x29, x30, [sp], #16
  400ae4:	52900001 	mov	w1, #0x8000                	// #32768
  400ae8:	52800040 	mov	w0, #0x2                   	// #2
  400aec:	17ffffc3 	b	4009f8 <check_one_fd>

0000000000400af0 <__libc_setup_tls>:
  400af0:	a9b87bfd 	stp	x29, x30, [sp, #-128]!
  400af4:	b0000c00 	adrp	x0, 581000 <memory_slot_ptr+0x588>
  400af8:	f00003e1 	adrp	x1, 47f000 <main_arena+0x868>
  400afc:	910003fd 	mov	x29, sp
  400b00:	f947ac00 	ldr	x0, [x0, #3928]
  400b04:	a90153f3 	stp	x19, x20, [sp, #16]
  400b08:	a9025bf5 	stp	x21, x22, [sp, #32]
  400b0c:	a90363f7 	stp	x23, x24, [sp, #48]
  400b10:	a9046bf9 	stp	x25, x26, [sp, #64]
  400b14:	a90573fb 	stp	x27, x28, [sp, #80]
  400b18:	f942cc35 	ldr	x21, [x1, #1432]
  400b1c:	b4000480 	cbz	x0, 400bac <__libc_setup_tls+0xbc>
  400b20:	b0000c01 	adrp	x1, 581000 <memory_slot_ptr+0x588>
  400b24:	f947c822 	ldr	x2, [x1, #3984]
  400b28:	d37df041 	lsl	x1, x2, #3
  400b2c:	cb020021 	sub	x1, x1, x2
  400b30:	8b010c01 	add	x1, x0, x1, lsl #3
  400b34:	eb01001f 	cmp	x0, x1
  400b38:	540000a3 	b.cc	400b4c <__libc_setup_tls+0x5c>  // b.lo, b.ul, b.last
  400b3c:	1400001c 	b	400bac <__libc_setup_tls+0xbc>
  400b40:	9100e000 	add	x0, x0, #0x38
  400b44:	eb01001f 	cmp	x0, x1
  400b48:	54000322 	b.cs	400bac <__libc_setup_tls+0xbc>  // b.hs, b.nlast
  400b4c:	b9400002 	ldr	w2, [x0]
  400b50:	71001c5f 	cmp	w2, #0x7
  400b54:	54ffff61 	b.ne	400b40 <__libc_setup_tls+0x50>  // b.any
  400b58:	f9400801 	ldr	x1, [x0, #16]
  400b5c:	f940181a 	ldr	x26, [x0, #48]
  400b60:	f94002b9 	ldr	x25, [x21]
  400b64:	a9424c17 	ldp	x23, x19, [x0, #32]
  400b68:	f100435f 	cmp	x26, #0x10
  400b6c:	8b010339 	add	x25, x25, x1
  400b70:	54000b68 	b.hi	400cdc <__libc_setup_tls+0x1ec>  // b.pmore
  400b74:	91004261 	add	x1, x19, #0x10
  400b78:	b4000c1a 	cbz	x26, 400cf8 <__libc_setup_tls+0x208>
  400b7c:	d28001e0 	mov	x0, #0xf                   	// #15
  400b80:	f9003ba0 	str	x0, [x29, #112]
  400b84:	928001e0 	mov	x0, #0xfffffffffffffff0    	// #-16
  400b88:	f9003fa0 	str	x0, [x29, #120]
  400b8c:	d2800200 	mov	x0, #0x10                  	// #16
  400b90:	f90037a0 	str	x0, [x29, #104]
  400b94:	91003f54 	add	x20, x26, #0xf
  400b98:	aa1a03fb 	mov	x27, x26
  400b9c:	9ada0a94 	udiv	x20, x20, x26
  400ba0:	9b1a7e94 	mul	x20, x20, x26
  400ba4:	aa1403fc 	mov	x28, x20
  400ba8:	1400000d 	b	400bdc <__libc_setup_tls+0xec>
  400bac:	d2800214 	mov	x20, #0x10                  	// #16
  400bb0:	d28001e0 	mov	x0, #0xf                   	// #15
  400bb4:	aa1403e1 	mov	x1, x20
  400bb8:	aa1403fc 	mov	x28, x20
  400bbc:	a90683b4 	stp	x20, x0, [x29, #104]
  400bc0:	d280001a 	mov	x26, #0x0                   	// #0
  400bc4:	928001e0 	mov	x0, #0xfffffffffffffff0    	// #-16
  400bc8:	d2800019 	mov	x25, #0x0                   	// #0
  400bcc:	d2800017 	mov	x23, #0x0                   	// #0
  400bd0:	d2800013 	mov	x19, #0x0                   	// #0
  400bd4:	d280003b 	mov	x27, #0x1                   	// #1
  400bd8:	f9003fa0 	str	x0, [x29, #120]
  400bdc:	d00003f6 	adrp	x22, 47e000 <_GLOBAL_OFFSET_TABLE_+0xd8>
  400be0:	8b140021 	add	x1, x1, x20
  400be4:	f94052c0 	ldr	x0, [x22, #160]
  400be8:	911bc000 	add	x0, x0, #0x6f0
  400bec:	8b010000 	add	x0, x0, x1
  400bf0:	94005ee6 	bl	418788 <__sbrk>
  400bf4:	911bc018 	add	x24, x0, #0x6f0
  400bf8:	f9403ba0 	ldr	x0, [x29, #112]
  400bfc:	b0000c02 	adrp	x2, 581000 <memory_slot_ptr+0x588>
  400c00:	912a4041 	add	x1, x2, #0xa90
  400c04:	8b000318 	add	x24, x24, x0
  400c08:	f9403fa0 	ldr	x0, [x29, #120]
  400c0c:	d28007c5 	mov	x5, #0x3e                  	// #62
  400c10:	f9021ebc 	str	x28, [x21, #1080]
  400c14:	8a000318 	and	x24, x24, x0
  400c18:	f9054845 	str	x5, [x2, #2704]
  400c1c:	8b140300 	add	x0, x24, x20
  400c20:	a9027c20 	stp	x0, xzr, [x1, #32]
  400c24:	aa1703e2 	mov	x2, x23
  400c28:	aa1903e1 	mov	x1, x25
  400c2c:	97fffd89 	bl	400250 <.plt+0x10>
  400c30:	b0000c00 	adrp	x0, 581000 <memory_slot_ptr+0x588>
  400c34:	912a8000 	add	x0, x0, #0xaa0
  400c38:	f9000300 	str	x0, [x24]
  400c3c:	d51bd058 	msr	tpidr_el0, x24
  400c40:	f00003e5 	adrp	x5, 47f000 <main_arena+0x868>
  400c44:	912b40a2 	add	x2, x5, #0xad0
  400c48:	b0000c09 	adrp	x9, 581000 <memory_slot_ptr+0x588>
  400c4c:	b0000c0a 	adrp	x10, 581000 <memory_slot_ptr+0x588>
  400c50:	b0000c06 	adrp	x6, 581000 <memory_slot_ptr+0x588>
  400c54:	8b1a0260 	add	x0, x19, x26
  400c58:	f9001455 	str	x21, [x2, #40]
  400c5c:	d2800021 	mov	x1, #0x1                   	// #1
  400c60:	f9074922 	str	x2, [x9, #3728]
  400c64:	911002a2 	add	x2, x21, #0x400
  400c68:	f9054541 	str	x1, [x10, #2696]
  400c6c:	f100035f 	cmp	x26, #0x0
  400c70:	f90754c1 	str	x1, [x6, #3752]
  400c74:	d1000400 	sub	x0, x0, #0x1
  400c78:	d280080b 	mov	x11, #0x40                  	// #64
  400c7c:	f90568ab 	str	x11, [x5, #2768]
  400c80:	a9026853 	stp	x19, x26, [x2, #32]
  400c84:	9a931013 	csel	x19, x0, x19, ne  // ne = any
  400c88:	a9015c59 	stp	x25, x23, [x2, #16]
  400c8c:	b0000c08 	adrp	x8, 581000 <memory_slot_ptr+0x588>
  400c90:	b0000c07 	adrp	x7, 581000 <memory_slot_ptr+0x588>
  400c94:	f90222a1 	str	x1, [x21, #1088]
  400c98:	9adb0a73 	udiv	x19, x19, x27
  400c9c:	f94052c0 	ldr	x0, [x22, #160]
  400ca0:	a94363f7 	ldp	x23, x24, [sp, #48]
  400ca4:	91003c00 	add	x0, x0, #0xf
  400ca8:	a9446bf9 	ldp	x25, x26, [sp, #64]
  400cac:	9b1b5273 	madd	x19, x19, x27, x20
  400cb0:	f9053d13 	str	x19, [x8, #2680]
  400cb4:	8b130000 	add	x0, x0, x19
  400cb8:	927cec00 	and	x0, x0, #0xfffffffffffffff0
  400cbc:	f90052c0 	str	x0, [x22, #160]
  400cc0:	f94037a0 	ldr	x0, [x29, #104]
  400cc4:	f90540e0 	str	x0, [x7, #2688]
  400cc8:	a94153f3 	ldp	x19, x20, [sp, #16]
  400ccc:	a9425bf5 	ldp	x21, x22, [sp, #32]
  400cd0:	a94573fb 	ldp	x27, x28, [sp, #80]
  400cd4:	a8c87bfd 	ldp	x29, x30, [sp], #128
  400cd8:	d65f03c0 	ret
  400cdc:	cb1a03e0 	neg	x0, x26
  400ce0:	8b1a0261 	add	x1, x19, x26
  400ce4:	f90037ba 	str	x26, [x29, #104]
  400ce8:	f9003fa0 	str	x0, [x29, #120]
  400cec:	d1000740 	sub	x0, x26, #0x1
  400cf0:	f9003ba0 	str	x0, [x29, #112]
  400cf4:	17ffffa8 	b	400b94 <__libc_setup_tls+0xa4>
  400cf8:	d28001e0 	mov	x0, #0xf                   	// #15
  400cfc:	d2800214 	mov	x20, #0x10                  	// #16
  400d00:	d280003b 	mov	x27, #0x1                   	// #1
  400d04:	a90683b4 	stp	x20, x0, [x29, #104]
  400d08:	aa1403fc 	mov	x28, x20
  400d0c:	928001e0 	mov	x0, #0xfffffffffffffff0    	// #-16
  400d10:	f9003fa0 	str	x0, [x29, #120]
  400d14:	17ffffb2 	b	400bdc <__libc_setup_tls+0xec>

0000000000400d18 <__tls_get_addr>:
  400d18:	d53bd041 	mrs	x1, tpidr_el0
  400d1c:	f9400400 	ldr	x0, [x0, #8]
  400d20:	f9400021 	ldr	x1, [x1]
  400d24:	f9400821 	ldr	x1, [x1, #16]
  400d28:	8b000020 	add	x0, x1, x0
  400d2c:	d65f03c0 	ret

0000000000400d30 <__libc_csu_init>:
  400d30:	a9bc7bfd 	stp	x29, x30, [sp, #-64]!
  400d34:	910003fd 	mov	x29, sp
  400d38:	a90153f3 	stp	x19, x20, [sp, #16]
  400d3c:	b00003f4 	adrp	x20, 47d000 <__FRAME_END__+0xf8fc>
  400d40:	a90363f7 	stp	x23, x24, [sp, #48]
  400d44:	91280294 	add	x20, x20, #0xa00
  400d48:	b00003f8 	adrp	x24, 47d000 <__FRAME_END__+0xf8fc>
  400d4c:	91280318 	add	x24, x24, #0xa00
  400d50:	a9025bf5 	stp	x21, x22, [sp, #32]
  400d54:	cb180294 	sub	x20, x20, x24
  400d58:	2a0003f5 	mov	w21, w0
  400d5c:	aa0103f6 	mov	x22, x1
  400d60:	aa0203f7 	mov	x23, x2
  400d64:	9343fe94 	asr	x20, x20, #3
  400d68:	b4000154 	cbz	x20, 400d90 <__libc_csu_init+0x60>
  400d6c:	d2800013 	mov	x19, #0x0                   	// #0
  400d70:	f8737b03 	ldr	x3, [x24, x19, lsl #3]
  400d74:	aa1703e2 	mov	x2, x23
  400d78:	aa1603e1 	mov	x1, x22
  400d7c:	2a1503e0 	mov	w0, w21
  400d80:	91000673 	add	x19, x19, #0x1
  400d84:	d63f0060 	blr	x3
  400d88:	eb13029f 	cmp	x20, x19
  400d8c:	54ffff21 	b.ne	400d70 <__libc_csu_init+0x40>  // b.any
  400d90:	b00003f4 	adrp	x20, 47d000 <__FRAME_END__+0xf8fc>
  400d94:	b00003f8 	adrp	x24, 47d000 <__FRAME_END__+0xf8fc>
  400d98:	91282294 	add	x20, x20, #0xa08
  400d9c:	91280318 	add	x24, x24, #0xa00
  400da0:	cb180294 	sub	x20, x20, x24
  400da4:	97fffd1f 	bl	400220 <__rela_iplt_end>
  400da8:	9343fe94 	asr	x20, x20, #3
  400dac:	b4000174 	cbz	x20, 400dd8 <__libc_csu_init+0xa8>
  400db0:	d2800013 	mov	x19, #0x0                   	// #0
  400db4:	d503201f 	nop
  400db8:	f8737b03 	ldr	x3, [x24, x19, lsl #3]
  400dbc:	aa1703e2 	mov	x2, x23
  400dc0:	aa1603e1 	mov	x1, x22
  400dc4:	2a1503e0 	mov	w0, w21
  400dc8:	91000673 	add	x19, x19, #0x1
  400dcc:	d63f0060 	blr	x3
  400dd0:	eb13029f 	cmp	x20, x19
  400dd4:	54ffff21 	b.ne	400db8 <__libc_csu_init+0x88>  // b.any
  400dd8:	a94153f3 	ldp	x19, x20, [sp, #16]
  400ddc:	a9425bf5 	ldp	x21, x22, [sp, #32]
  400de0:	a94363f7 	ldp	x23, x24, [sp, #48]
  400de4:	a8c47bfd 	ldp	x29, x30, [sp], #64
  400de8:	d65f03c0 	ret
  400dec:	d503201f 	nop

0000000000400df0 <__libc_csu_fini>:
  400df0:	a9be7bfd 	stp	x29, x30, [sp, #-32]!
  400df4:	b00003e0 	adrp	x0, 47d000 <__FRAME_END__+0xf8fc>
  400df8:	91286000 	add	x0, x0, #0xa18
  400dfc:	910003fd 	mov	x29, sp
  400e00:	f9000ff4 	str	x20, [sp, #24]
  400e04:	b00003f4 	adrp	x20, 47d000 <__FRAME_END__+0xf8fc>
  400e08:	91282294 	add	x20, x20, #0xa08
  400e0c:	cb140000 	sub	x0, x0, x20
  400e10:	9343fc00 	asr	x0, x0, #3
  400e14:	b4000120 	cbz	x0, 400e38 <__libc_csu_fini+0x48>
  400e18:	f9000bb3 	str	x19, [x29, #16]
  400e1c:	d1000413 	sub	x19, x0, #0x1
  400e20:	f8737a80 	ldr	x0, [x20, x19, lsl #3]
  400e24:	d1000673 	sub	x19, x19, #0x1
  400e28:	d63f0000 	blr	x0
  400e2c:	b100067f 	cmn	x19, #0x1
  400e30:	54ffff81 	b.ne	400e20 <__libc_csu_fini+0x30>  // b.any
  400e34:	f9400bb3 	ldr	x19, [x29, #16]
  400e38:	f9400ff4 	ldr	x20, [sp, #24]
  400e3c:	a8c27bfd 	ldp	x29, x30, [sp], #32
  400e40:	1401392e 	b	44f2f8 <_fini>
  400e44:	00000000 	.inst	0x00000000 ; undefined

0000000000400e48 <__assert_fail_base>:
  400e48:	d101c3ff 	sub	sp, sp, #0x70
  400e4c:	f0000266 	adrp	x6, 44f000 <free_slotinfo+0x8>
  400e50:	b00003e5 	adrp	x5, 47d000 <__FRAME_END__+0xf8fc>
  400e54:	912860a5 	add	x5, x5, #0xa18
  400e58:	a9017bfd 	stp	x29, x30, [sp, #16]
  400e5c:	910043fd 	add	x29, sp, #0x10
  400e60:	a90253f3 	stp	x19, x20, [sp, #32]
  400e64:	aa0003f4 	mov	x20, x0
  400e68:	f94288c0 	ldr	x0, [x6, #1296]
  400e6c:	f94000a6 	ldr	x6, [x5]
  400e70:	f9002fa6 	str	x6, [x29, #88]
  400e74:	d2800006 	mov	x6, #0x0                   	// #0
  400e78:	a9035bf5 	stp	x21, x22, [sp, #48]
  400e7c:	aa0403f3 	mov	x19, x4
  400e80:	f90023f7 	str	x23, [sp, #64]
  400e84:	aa0203f5 	mov	x21, x2
  400e88:	2a0303f6 	mov	w22, w3
  400e8c:	aa0103f7 	mov	x23, x1
  400e90:	b4000080 	cbz	x0, 400ea0 <__assert_fail_base+0x58>
  400e94:	d2800001 	mov	x1, #0x0                   	// #0
  400e98:	52800020 	mov	w0, #0x1                   	// #1
  400e9c:	d503201f 	nop
  400ea0:	f00003e1 	adrp	x1, 47f000 <main_arena+0x868>
  400ea4:	f00002e0 	adrp	x0, 45f000 <translit_from_idx+0x14b8>
  400ea8:	f0000267 	adrp	x7, 44f000 <free_slotinfo+0x8>
  400eac:	912e0000 	add	x0, x0, #0xb80
  400eb0:	f9403821 	ldr	x1, [x1, #112]
  400eb4:	911460e7 	add	x7, x7, #0x518
  400eb8:	39400022 	ldrb	w2, [x1]
  400ebc:	7100005f 	cmp	w2, #0x0
  400ec0:	9a8010e3 	csel	x3, x7, x0, ne  // ne = any
  400ec4:	b40006f3 	cbz	x19, 400fa0 <__assert_fail_base+0x158>
  400ec8:	910133a0 	add	x0, x29, #0x4c
  400ecc:	a90003f7 	stp	x23, x0, [sp]
  400ed0:	aa0103e2 	mov	x2, x1
  400ed4:	aa1303e6 	mov	x6, x19
  400ed8:	2a1603e5 	mov	w5, w22
  400edc:	aa1503e4 	mov	x4, x21
  400ee0:	aa1403e1 	mov	x1, x20
  400ee4:	910143a0 	add	x0, x29, #0x50
  400ee8:	940016be 	bl	4069e0 <___asprintf>
  400eec:	37f804e0 	tbnz	w0, #31, 400f88 <__assert_fail_base+0x140>
  400ef0:	f9402ba2 	ldr	x2, [x29, #80]
  400ef4:	90000341 	adrp	x1, 468000 <__sys_nerr_internal+0x48>
  400ef8:	d2800000 	mov	x0, #0x0                   	// #0
  400efc:	91006021 	add	x1, x1, #0x18
  400f00:	9400174a 	bl	406c28 <__fxprintf>
  400f04:	d00003e0 	adrp	x0, 47e000 <_GLOBAL_OFFSET_TABLE_+0xd8>
  400f08:	f9438800 	ldr	x0, [x0, #1808]
  400f0c:	940018a9 	bl	4071b0 <_IO_fflush>
  400f10:	f00003e0 	adrp	x0, 47f000 <main_arena+0x868>
  400f14:	b9404fa1 	ldr	w1, [x29, #76]
  400f18:	d2800005 	mov	x5, #0x0                   	// #0
  400f1c:	12800004 	mov	w4, #0xffffffff            	// #-1
  400f20:	f9404000 	ldr	x0, [x0, #128]
  400f24:	52800443 	mov	w3, #0x22                  	// #34
  400f28:	52800062 	mov	w2, #0x3                   	// #3
  400f2c:	0b000021 	add	w1, w1, w0
  400f30:	4b0003e0 	neg	w0, w0
  400f34:	0a000021 	and	w1, w1, w0
  400f38:	d2800000 	mov	x0, #0x0                   	// #0
  400f3c:	b9004fa1 	str	w1, [x29, #76]
  400f40:	93407c21 	sxtw	x1, w1
  400f44:	94005e65 	bl	4188d8 <__mmap64>
  400f48:	aa0003f3 	mov	x19, x0
  400f4c:	b100041f 	cmn	x0, #0x1
  400f50:	54000160 	b.eq	400f7c <__assert_fail_base+0x134>  // b.none
  400f54:	f9402ba1 	ldr	x1, [x29, #80]
  400f58:	b9404fa2 	ldr	w2, [x29, #76]
  400f5c:	b8004402 	str	w2, [x0], #4
  400f60:	94004eb8 	bl	414a40 <strcpy>
  400f64:	90000401 	adrp	x1, 480000 <locale_alias_path.10139>
  400f68:	91008021 	add	x1, x1, #0x20
  400f6c:	c85ffc20 	ldaxr	x0, [x1]
  400f70:	c8027c33 	stxr	w2, x19, [x1]
  400f74:	35ffffc2 	cbnz	w2, 400f6c <__assert_fail_base+0x124>
  400f78:	b50001a0 	cbnz	x0, 400fac <__assert_fail_base+0x164>
  400f7c:	f9402ba0 	ldr	x0, [x29, #80]
  400f80:	94004998 	bl	4135e0 <__free>
  400f84:	9400115b 	bl	4054f0 <abort>
  400f88:	f0000261 	adrp	x1, 44f000 <free_slotinfo+0x8>
  400f8c:	91154021 	add	x1, x1, #0x550
  400f90:	d2800242 	mov	x2, #0x12                  	// #18
  400f94:	52800040 	mov	w0, #0x2                   	// #2
  400f98:	94005b22 	bl	417c20 <__libc_write>
  400f9c:	94001155 	bl	4054f0 <abort>
  400fa0:	aa0003f3 	mov	x19, x0
  400fa4:	aa0003e7 	mov	x7, x0
  400fa8:	17ffffc8 	b	400ec8 <__assert_fail_base+0x80>
  400fac:	b9400001 	ldr	w1, [x0]
  400fb0:	94005e64 	bl	418940 <__munmap>
  400fb4:	17fffff2 	b	400f7c <__assert_fail_base+0x134>

0000000000400fb8 <__assert_fail>:
  400fb8:	a9bd7bfd 	stp	x29, x30, [sp, #-48]!
  400fbc:	910003fd 	mov	x29, sp
  400fc0:	a90153f3 	stp	x19, x20, [sp, #16]
  400fc4:	aa0003f3 	mov	x19, x0
  400fc8:	a9025bf5 	stp	x21, x22, [sp, #32]
  400fcc:	aa0103f4 	mov	x20, x1
  400fd0:	aa0303f6 	mov	x22, x3
  400fd4:	2a0203f5 	mov	w21, w2
  400fd8:	f0000261 	adrp	x1, 44f000 <free_slotinfo+0x8>
  400fdc:	528000a2 	mov	w2, #0x5                   	// #5
  400fe0:	91148021 	add	x1, x1, #0x520
  400fe4:	f00002e0 	adrp	x0, 45f000 <translit_from_idx+0x14b8>
  400fe8:	91044000 	add	x0, x0, #0x110
  400fec:	94000007 	bl	401008 <__dcgettext>
  400ff0:	aa1603e4 	mov	x4, x22
  400ff4:	2a1503e3 	mov	w3, w21
  400ff8:	aa1403e2 	mov	x2, x20
  400ffc:	aa1303e1 	mov	x1, x19
  401000:	97ffff92 	bl	400e48 <__assert_fail_base>
  401004:	00000000 	.inst	0x00000000 ; undefined

0000000000401008 <__dcgettext>:
  401008:	2a0203e5 	mov	w5, w2
  40100c:	d2800004 	mov	x4, #0x0                   	// #0
  401010:	52800003 	mov	w3, #0x0                   	// #0
  401014:	d2800002 	mov	x2, #0x0                   	// #0
  401018:	14000336 	b	401cf0 <__dcigettext>
  40101c:	00000000 	.inst	0x00000000 ; undefined

0000000000401020 <plural_eval>:
  401020:	a9bd7bfd 	stp	x29, x30, [sp, #-48]!
  401024:	910003fd 	mov	x29, sp
  401028:	a90153f3 	stp	x19, x20, [sp, #16]
  40102c:	aa0003f3 	mov	x19, x0
  401030:	f90013f5 	str	x21, [sp, #32]
  401034:	aa0103f5 	mov	x21, x1
  401038:	b9400260 	ldr	w0, [x19]
  40103c:	7100041f 	cmp	w0, #0x1
  401040:	54000220 	b.eq	401084 <plural_eval+0x64>  // b.none
  401044:	5400052d 	b.le	4010e8 <plural_eval+0xc8>
  401048:	aa1503e1 	mov	x1, x21
  40104c:	7100081f 	cmp	w0, #0x2
  401050:	540002e0 	b.eq	4010ac <plural_eval+0x8c>  // b.none
  401054:	71000c1f 	cmp	w0, #0x3
  401058:	540006a1 	b.ne	40112c <plural_eval+0x10c>  // b.any
  40105c:	f9400660 	ldr	x0, [x19, #8]
  401060:	97fffff0 	bl	401020 <plural_eval>
  401064:	f100001f 	cmp	x0, #0x0
  401068:	1a9f17e0 	cset	w0, eq  // eq = none
  40106c:	11000400 	add	w0, w0, #0x1
  401070:	8b20ce73 	add	x19, x19, w0, sxtw #3
  401074:	f9400673 	ldr	x19, [x19, #8]
  401078:	b9400260 	ldr	w0, [x19]
  40107c:	7100041f 	cmp	w0, #0x1
  401080:	54fffe21 	b.ne	401044 <plural_eval+0x24>  // b.any
  401084:	f9400660 	ldr	x0, [x19, #8]
  401088:	aa1503e1 	mov	x1, x21
  40108c:	97ffffe5 	bl	401020 <plural_eval>
  401090:	f100001f 	cmp	x0, #0x0
  401094:	9a9f17f4 	cset	x20, eq  // eq = none
  401098:	aa1403e0 	mov	x0, x20
  40109c:	f94013f5 	ldr	x21, [sp, #32]
  4010a0:	a94153f3 	ldp	x19, x20, [sp, #16]
  4010a4:	a8c37bfd 	ldp	x29, x30, [sp], #48
  4010a8:	d65f03c0 	ret
  4010ac:	f9400660 	ldr	x0, [x19, #8]
  4010b0:	97ffffdc 	bl	401020 <plural_eval>
  4010b4:	aa0003f4 	mov	x20, x0
  4010b8:	b9400660 	ldr	w0, [x19, #4]
  4010bc:	71003c1f 	cmp	w0, #0xf
  4010c0:	54000420 	b.eq	401144 <plural_eval+0x124>  // b.none
  4010c4:	7100381f 	cmp	w0, #0xe
  4010c8:	54000441 	b.ne	401150 <plural_eval+0x130>  // b.any
  4010cc:	b4fffe74 	cbz	x20, 401098 <plural_eval+0x78>
  4010d0:	f9400a60 	ldr	x0, [x19, #16]
  4010d4:	aa1503e1 	mov	x1, x21
  4010d8:	97ffffd2 	bl	401020 <plural_eval>
  4010dc:	f100001f 	cmp	x0, #0x0
  4010e0:	9a9f07f4 	cset	x20, ne  // ne = any
  4010e4:	17ffffed 	b	401098 <plural_eval+0x78>
  4010e8:	35000220 	cbnz	w0, 40112c <plural_eval+0x10c>
  4010ec:	b9400660 	ldr	w0, [x19, #4]
  4010f0:	aa1503f4 	mov	x20, x21
  4010f4:	34fffd20 	cbz	w0, 401098 <plural_eval+0x78>
  4010f8:	7100041f 	cmp	w0, #0x1
  4010fc:	54000181 	b.ne	40112c <plural_eval+0x10c>  // b.any
  401100:	f9400674 	ldr	x20, [x19, #8]
  401104:	17ffffe5 	b	401098 <plural_eval+0x78>
  401108:	71002c1f 	cmp	w0, #0xb
  40110c:	540008a0 	b.eq	401220 <plural_eval+0x200>  // b.none
  401110:	54000588 	b.hi	4011c0 <plural_eval+0x1a0>  // b.pmore
  401114:	7100241f 	cmp	w0, #0x9
  401118:	540007e0 	b.eq	401214 <plural_eval+0x1f4>  // b.none
  40111c:	eb15029f 	cmp	x20, x21
  401120:	9a9f87f4 	cset	x20, ls  // ls = plast
  401124:	7100281f 	cmp	w0, #0xa
  401128:	54fffb80 	b.eq	401098 <plural_eval+0x78>  // b.none
  40112c:	d2800014 	mov	x20, #0x0                   	// #0
  401130:	f94013f5 	ldr	x21, [sp, #32]
  401134:	aa1403e0 	mov	x0, x20
  401138:	a94153f3 	ldp	x19, x20, [sp, #16]
  40113c:	a8c37bfd 	ldp	x29, x30, [sp], #48
  401140:	d65f03c0 	ret
  401144:	b4fffc74 	cbz	x20, 4010d0 <plural_eval+0xb0>
  401148:	d2800034 	mov	x20, #0x1                   	// #1
  40114c:	17ffffd3 	b	401098 <plural_eval+0x78>
  401150:	f9400a60 	ldr	x0, [x19, #16]
  401154:	aa1503e1 	mov	x1, x21
  401158:	97ffffb2 	bl	401020 <plural_eval>
  40115c:	aa0003f5 	mov	x21, x0
  401160:	b9400660 	ldr	w0, [x19, #4]
  401164:	7100201f 	cmp	w0, #0x8
  401168:	540003e0 	b.eq	4011e4 <plural_eval+0x1c4>  // b.none
  40116c:	54fffce8 	b.hi	401108 <plural_eval+0xe8>  // b.pmore
  401170:	7100141f 	cmp	w0, #0x5
  401174:	54000440 	b.eq	4011fc <plural_eval+0x1dc>  // b.none
  401178:	54000188 	b.hi	4011a8 <plural_eval+0x188>  // b.pmore
  40117c:	71000c1f 	cmp	w0, #0x3
  401180:	540002e0 	b.eq	4011dc <plural_eval+0x1bc>  // b.none
  401184:	7100101f 	cmp	w0, #0x4
  401188:	54fffd21 	b.ne	40112c <plural_eval+0x10c>  // b.any
  40118c:	b4000075 	cbz	x21, 401198 <plural_eval+0x178>
  401190:	9ad50a94 	udiv	x20, x20, x21
  401194:	17ffffc1 	b	401098 <plural_eval+0x78>
  401198:	52800100 	mov	w0, #0x8                   	// #8
  40119c:	9400105d 	bl	405310 <raise>
  4011a0:	9ad50a94 	udiv	x20, x20, x21
  4011a4:	17ffffbd 	b	401098 <plural_eval+0x78>
  4011a8:	7100181f 	cmp	w0, #0x6
  4011ac:	54000400 	b.eq	40122c <plural_eval+0x20c>  // b.none
  4011b0:	cb150294 	sub	x20, x20, x21
  4011b4:	71001c1f 	cmp	w0, #0x7
  4011b8:	54fff700 	b.eq	401098 <plural_eval+0x78>  // b.none
  4011bc:	17ffffdc 	b	40112c <plural_eval+0x10c>
  4011c0:	7100301f 	cmp	w0, #0xc
  4011c4:	54000160 	b.eq	4011f0 <plural_eval+0x1d0>  // b.none
  4011c8:	eb15029f 	cmp	x20, x21
  4011cc:	9a9f07f4 	cset	x20, ne  // ne = any
  4011d0:	7100341f 	cmp	w0, #0xd
  4011d4:	54fff620 	b.eq	401098 <plural_eval+0x78>  // b.none
  4011d8:	17ffffd5 	b	40112c <plural_eval+0x10c>
  4011dc:	9b157e94 	mul	x20, x20, x21
  4011e0:	17ffffae 	b	401098 <plural_eval+0x78>
  4011e4:	eb15029f 	cmp	x20, x21
  4011e8:	9a9f27f4 	cset	x20, cc  // cc = lo, ul, last
  4011ec:	17ffffab 	b	401098 <plural_eval+0x78>
  4011f0:	eb15029f 	cmp	x20, x21
  4011f4:	9a9f17f4 	cset	x20, eq  // eq = none
  4011f8:	17ffffa8 	b	401098 <plural_eval+0x78>
  4011fc:	b5000075 	cbnz	x21, 401208 <plural_eval+0x1e8>
  401200:	52800100 	mov	w0, #0x8                   	// #8
  401204:	94001043 	bl	405310 <raise>
  401208:	9ad50a80 	udiv	x0, x20, x21
  40120c:	9b15d014 	msub	x20, x0, x21, x20
  401210:	17ffffa2 	b	401098 <plural_eval+0x78>
  401214:	eb15029f 	cmp	x20, x21
  401218:	9a9f97f4 	cset	x20, hi  // hi = pmore
  40121c:	17ffff9f 	b	401098 <plural_eval+0x78>
  401220:	eb15029f 	cmp	x20, x21
  401224:	9a9f37f4 	cset	x20, cs  // cs = hs, nlast
  401228:	17ffff9c 	b	401098 <plural_eval+0x78>
  40122c:	8b150294 	add	x20, x20, x21
  401230:	17ffff9a 	b	401098 <plural_eval+0x78>
  401234:	d503201f 	nop

0000000000401238 <transcmp>:
  401238:	a9be7bfd 	stp	x29, x30, [sp, #-32]!
  40123c:	910003fd 	mov	x29, sp
  401240:	a90153f3 	stp	x19, x20, [sp, #16]
  401244:	aa0003f4 	mov	x20, x0
  401248:	f9401000 	ldr	x0, [x0, #32]
  40124c:	aa0103f3 	mov	x19, x1
  401250:	b40002e0 	cbz	x0, 4012ac <transcmp+0x74>
  401254:	9100e280 	add	x0, x20, #0x38
  401258:	f9401261 	ldr	x1, [x19, #32]
  40125c:	b4000241 	cbz	x1, 4012a4 <transcmp+0x6c>
  401260:	9100e261 	add	x1, x19, #0x38
  401264:	94004db7 	bl	414940 <strcmp>
  401268:	35000180 	cbnz	w0, 401298 <transcmp+0x60>
  40126c:	f9400261 	ldr	x1, [x19]
  401270:	f9400280 	ldr	x0, [x20]
  401274:	94004db3 	bl	414940 <strcmp>
  401278:	35000100 	cbnz	w0, 401298 <transcmp+0x60>
  40127c:	f9400a61 	ldr	x1, [x19, #16]
  401280:	f9400a80 	ldr	x0, [x20, #16]
  401284:	94004daf 	bl	414940 <strcmp>
  401288:	35000080 	cbnz	w0, 401298 <transcmp+0x60>
  40128c:	b9400a61 	ldr	w1, [x19, #8]
  401290:	b9400a80 	ldr	w0, [x20, #8]
  401294:	4b010000 	sub	w0, w0, w1
  401298:	a94153f3 	ldp	x19, x20, [sp, #16]
  40129c:	a8c27bfd 	ldp	x29, x30, [sp], #32
  4012a0:	d65f03c0 	ret
  4012a4:	f9401e61 	ldr	x1, [x19, #56]
  4012a8:	17ffffef 	b	401264 <transcmp+0x2c>
  4012ac:	f9401e80 	ldr	x0, [x20, #56]
  4012b0:	17ffffea 	b	401258 <transcmp+0x20>
  4012b4:	d503201f 	nop

00000000004012b8 <plural_lookup.isra.2>:
  4012b8:	a9bd7bfd 	stp	x29, x30, [sp, #-48]!
  4012bc:	910003fd 	mov	x29, sp
  4012c0:	a9025bf5 	stp	x21, x22, [sp, #32]
  4012c4:	aa0003f6 	mov	x22, x0
  4012c8:	f9405c00 	ldr	x0, [x0, #184]
  4012cc:	aa0203f5 	mov	x21, x2
  4012d0:	a90153f3 	stp	x19, x20, [sp, #16]
  4012d4:	aa0303f4 	mov	x20, x3
  4012d8:	97ffff52 	bl	401020 <plural_eval>
  4012dc:	aa0003f3 	mov	x19, x0
  4012e0:	f94062c0 	ldr	x0, [x22, #192]
  4012e4:	eb00027f 	cmp	x19, x0
  4012e8:	540001a2 	b.cs	40131c <plural_lookup.isra.2+0x64>  // b.hs, b.nlast
  4012ec:	aa1503e2 	mov	x2, x21
  4012f0:	8b1402b4 	add	x20, x21, x20
  4012f4:	d503201f 	nop
  4012f8:	d1000673 	sub	x19, x19, #0x1
  4012fc:	aa0203e0 	mov	x0, x2
  401300:	52800001 	mov	w1, #0x0                   	// #0
  401304:	b100067f 	cmn	x19, #0x1
  401308:	54000140 	b.eq	401330 <plural_lookup.isra.2+0x78>  // b.none
  40130c:	940052fd 	bl	415f00 <__rawmemchr>
  401310:	91000402 	add	x2, x0, #0x1
  401314:	eb14005f 	cmp	x2, x20
  401318:	54ffff03 	b.cc	4012f8 <plural_lookup.isra.2+0x40>  // b.lo, b.ul, b.last
  40131c:	aa1503e0 	mov	x0, x21
  401320:	a94153f3 	ldp	x19, x20, [sp, #16]
  401324:	a9425bf5 	ldp	x21, x22, [sp, #32]
  401328:	a8c37bfd 	ldp	x29, x30, [sp], #48
  40132c:	d65f03c0 	ret
  401330:	aa0203f5 	mov	x21, x2
  401334:	17fffffa 	b	40131c <plural_lookup.isra.2+0x64>

0000000000401338 <_nl_find_msg>:
  401338:	a9b57bfd 	stp	x29, x30, [sp, #-176]!
  40133c:	900003e5 	adrp	x5, 47d000 <__FRAME_END__+0xf8fc>
  401340:	912860a5 	add	x5, x5, #0xa18
  401344:	910003fd 	mov	x29, sp
  401348:	f94000a6 	ldr	x6, [x5]
  40134c:	f90057a6 	str	x6, [x29, #168]
  401350:	d2800006 	mov	x6, #0x0                   	// #0
  401354:	a90153f3 	stp	x19, x20, [sp, #16]
  401358:	a9025bf5 	stp	x21, x22, [sp, #32]
  40135c:	aa0203f3 	mov	x19, x2
  401360:	a90363f7 	stp	x23, x24, [sp, #48]
  401364:	a9046bf9 	stp	x25, x26, [sp, #64]
  401368:	aa0003f9 	mov	x25, x0
  40136c:	b9400802 	ldr	w2, [x0, #8]
  401370:	a90573fb 	stp	x27, x28, [sp, #80]
  401374:	a90613a1 	stp	x1, x4, [x29, #96]
  401378:	7100005f 	cmp	w2, #0x0
  40137c:	b90077a3 	str	w3, [x29, #116]
  401380:	540017cd 	b.le	401678 <_nl_find_msg+0x340>
  401384:	f9400b3c 	ldr	x28, [x25, #16]
  401388:	b40007bc 	cbz	x28, 40147c <_nl_find_msg+0x144>
  40138c:	f9403380 	ldr	x0, [x28, #96]
  401390:	b9402b94 	ldr	w20, [x28, #40]
  401394:	b40013a0 	cbz	x0, 401608 <_nl_find_msg+0x2d0>
  401398:	aa1303e0 	mov	x0, x19
  40139c:	94004e89 	bl	414dc0 <__strlen>
  4013a0:	aa0003f5 	mov	x21, x0
  4013a4:	aa1303e0 	mov	x0, x19
  4013a8:	94000f9e 	bl	405220 <__hash_string>
  4013ac:	b9008bb5 	str	w21, [x29, #136]
  4013b0:	b9405b82 	ldr	w2, [x28, #88]
  4013b4:	92407eb5 	and	x21, x21, #0xffffffff
  4013b8:	f9403386 	ldr	x6, [x28, #96]
  4013bc:	51000841 	sub	w1, w2, #0x2
  4013c0:	b9406b84 	ldr	w4, [x28, #104]
  4013c4:	1ac2081a 	udiv	w26, w0, w2
  4013c8:	7100009f 	cmp	w4, #0x0
  4013cc:	1ac10803 	udiv	w3, w0, w1
  4013d0:	1b02835a 	msub	w26, w26, w2, w0
  4013d4:	1b018060 	msub	w0, w3, w1, w0
  4013d8:	b87a58c1 	ldr	w1, [x6, w26, uxtw #2]
  4013dc:	1100041b 	add	w27, w0, #0x1
  4013e0:	4b1b0056 	sub	w22, w2, w27
  4013e4:	4b020378 	sub	w24, w27, w2
  4013e8:	5ac00820 	rev	w0, w1
  4013ec:	1a811001 	csel	w1, w0, w1, ne  // ne = any
  4013f0:	34000461 	cbz	w1, 40147c <_nl_find_msg+0x144>
  4013f4:	d503201f 	nop
  4013f8:	51000437 	sub	w23, w1, #0x1
  4013fc:	6b17029f 	cmp	w20, w23
  401400:	540005e9 	b.ls	4014bc <_nl_find_msg+0x184>  // b.plast
  401404:	b9401b88 	ldr	w8, [x28, #24]
  401408:	d37df2e0 	lsl	x0, x23, #3
  40140c:	f9401b81 	ldr	x1, [x28, #48]
  401410:	8b000029 	add	x9, x1, x0
  401414:	b8606820 	ldr	w0, [x1, x0]
  401418:	34000ec8 	cbz	w8, 4015f0 <_nl_find_msg+0x2b8>
  40141c:	b9408ba1 	ldr	w1, [x29, #136]
  401420:	5ac00800 	rev	w0, w0
  401424:	6b00003f 	cmp	w1, w0
  401428:	54000188 	b.hi	401458 <_nl_find_msg+0x120>  // b.pmore
  40142c:	b9400520 	ldr	w0, [x9, #4]
  401430:	f9400381 	ldr	x1, [x28]
  401434:	5ac00800 	rev	w0, w0
  401438:	8b000021 	add	x1, x1, x0
  40143c:	f9003fa6 	str	x6, [x29, #120]
  401440:	b90083a4 	str	w4, [x29, #128]
  401444:	aa1303e0 	mov	x0, x19
  401448:	94004d3e 	bl	414940 <strcmp>
  40144c:	b94083a4 	ldr	w4, [x29, #128]
  401450:	f9403fa6 	ldr	x6, [x29, #120]
  401454:	34000520 	cbz	w0, 4014f8 <_nl_find_msg+0x1c0>
  401458:	0b180340 	add	w0, w26, w24
  40145c:	0b1b0341 	add	w1, w26, w27
  401460:	6b1a02df 	cmp	w22, w26
  401464:	1a80803a 	csel	w26, w1, w0, hi  // hi = pmore
  401468:	7100009f 	cmp	w4, #0x0
  40146c:	b87a58c1 	ldr	w1, [x6, w26, uxtw #2]
  401470:	5ac00820 	rev	w0, w1
  401474:	1a811001 	csel	w1, w0, w1, ne  // ne = any
  401478:	35fffc01 	cbnz	w1, 4013f8 <_nl_find_msg+0xc0>
  40147c:	d2800013 	mov	x19, #0x0                   	// #0
  401480:	900003e0 	adrp	x0, 47d000 <__FRAME_END__+0xf8fc>
  401484:	91286018 	add	x24, x0, #0xa18
  401488:	f94057a2 	ldr	x2, [x29, #168]
  40148c:	f9400301 	ldr	x1, [x24]
  401490:	ca010041 	eor	x1, x2, x1
  401494:	aa1303e0 	mov	x0, x19
  401498:	b5004181 	cbnz	x1, 401cc8 <_nl_find_msg+0x990>
  40149c:	910003bf 	mov	sp, x29
  4014a0:	a94153f3 	ldp	x19, x20, [sp, #16]
  4014a4:	a9425bf5 	ldp	x21, x22, [sp, #32]
  4014a8:	a94363f7 	ldp	x23, x24, [sp, #48]
  4014ac:	a9446bf9 	ldp	x25, x26, [sp, #64]
  4014b0:	a94573fb 	ldp	x27, x28, [sp, #80]
  4014b4:	a8cb7bfd 	ldp	x29, x30, [sp], #176
  4014b8:	d65f03c0 	ret
  4014bc:	4b1402e0 	sub	w0, w23, w20
  4014c0:	f9402781 	ldr	x1, [x28, #72]
  4014c4:	d37cec00 	lsl	x0, x0, #4
  4014c8:	8b000028 	add	x8, x1, x0
  4014cc:	f8606820 	ldr	x0, [x1, x0]
  4014d0:	eb15001f 	cmp	x0, x21
  4014d4:	54fffc29 	b.ls	401458 <_nl_find_msg+0x120>  // b.plast
  4014d8:	f9400501 	ldr	x1, [x8, #8]
  4014dc:	aa1303e0 	mov	x0, x19
  4014e0:	f9003fa6 	str	x6, [x29, #120]
  4014e4:	b90083a4 	str	w4, [x29, #128]
  4014e8:	94004d16 	bl	414940 <strcmp>
  4014ec:	b94083a4 	ldr	w4, [x29, #128]
  4014f0:	f9403fa6 	ldr	x6, [x29, #120]
  4014f4:	35fffb20 	cbnz	w0, 401458 <_nl_find_msg+0x120>
  4014f8:	aa1703fb 	mov	x27, x23
  4014fc:	2a1403e0 	mov	w0, w20
  401500:	f90047a0 	str	x0, [x29, #136]
  401504:	f94047a0 	ldr	x0, [x29, #136]
  401508:	eb00037f 	cmp	x27, x0
  40150c:	54000ba2 	b.cs	401680 <_nl_find_msg+0x348>  // b.hs, b.nlast
  401510:	f9401f81 	ldr	x1, [x28, #56]
  401514:	d37df360 	lsl	x0, x27, #3
  401518:	b9401b82 	ldr	w2, [x28, #24]
  40151c:	8b000023 	add	x3, x1, x0
  401520:	f9400393 	ldr	x19, [x28]
  401524:	b8606835 	ldr	w21, [x1, x0]
  401528:	b9400460 	ldr	w0, [x3, #4]
  40152c:	34000c22 	cbz	w2, 4016b0 <_nl_find_msg+0x378>
  401530:	5ac00800 	rev	w0, w0
  401534:	5ac00ab5 	rev	w21, w21
  401538:	8b000273 	add	x19, x19, x0
  40153c:	b94077a0 	ldr	w0, [x29, #116]
  401540:	110006b8 	add	w24, w21, #0x1
  401544:	34000b00 	cbz	w0, 4016a4 <_nl_find_msg+0x36c>
  401548:	f94033a0 	ldr	x0, [x29, #96]
  40154c:	b4000b80 	cbz	x0, 4016bc <_nl_find_msg+0x384>
  401550:	f9400816 	ldr	x22, [x0, #16]
  401554:	b4000b56 	cbz	x22, 4016bc <_nl_find_msg+0x384>
  401558:	d0000260 	adrp	x0, 44f000 <free_slotinfo+0x8>
  40155c:	f942b400 	ldr	x0, [x0, #1384]
  401560:	b4000060 	cbz	x0, 40156c <_nl_find_msg+0x234>
  401564:	91020380 	add	x0, x28, #0x80
  401568:	d503201f 	nop
  40156c:	f9403f95 	ldr	x21, [x28, #120]
  401570:	b4000c15 	cbz	x21, 4016f0 <_nl_find_msg+0x3b8>
  401574:	8b1506a0 	add	x0, x21, x21, lsl #1
  401578:	f9403b9a 	ldr	x26, [x28, #112]
  40157c:	d37df000 	lsl	x0, x0, #3
  401580:	d1006000 	sub	x0, x0, #0x18
  401584:	8b00035a 	add	x26, x26, x0
  401588:	14000003 	b	401594 <_nl_find_msg+0x25c>
  40158c:	d100635a 	sub	x26, x26, #0x18
  401590:	b4000b15 	cbz	x21, 4016f0 <_nl_find_msg+0x3b8>
  401594:	f9400340 	ldr	x0, [x26]
  401598:	d10006b5 	sub	x21, x21, #0x1
  40159c:	aa1a03f7 	mov	x23, x26
  4015a0:	aa1603e1 	mov	x1, x22
  4015a4:	94004ce7 	bl	414940 <strcmp>
  4015a8:	35ffff20 	cbnz	w0, 40158c <_nl_find_msg+0x254>
  4015ac:	d0000260 	adrp	x0, 44f000 <free_slotinfo+0x8>
  4015b0:	f942bc00 	ldr	x0, [x0, #1400]
  4015b4:	b4000060 	cbz	x0, 4015c0 <_nl_find_msg+0x288>
  4015b8:	91020380 	add	x0, x28, #0x80
  4015bc:	d503201f 	nop
  4015c0:	f94006e0 	ldr	x0, [x23, #8]
  4015c4:	b100041f 	cmn	x0, #0x1
  4015c8:	540006e0 	b.eq	4016a4 <_nl_find_msg+0x36c>  // b.none
  4015cc:	f9400ae0 	ldr	x0, [x23, #16]
  4015d0:	b40026c0 	cbz	x0, 401aa8 <_nl_find_msg+0x770>
  4015d4:	b100041f 	cmn	x0, #0x1
  4015d8:	54002640 	b.eq	401aa0 <_nl_find_msg+0x768>  // b.none
  4015dc:	f87b7800 	ldr	x0, [x0, x27, lsl #3]
  4015e0:	b4000de0 	cbz	x0, 40179c <_nl_find_msg+0x464>
  4015e4:	91002013 	add	x19, x0, #0x8
  4015e8:	f9400018 	ldr	x24, [x0]
  4015ec:	1400002e 	b	4016a4 <_nl_find_msg+0x36c>
  4015f0:	b9408ba1 	ldr	w1, [x29, #136]
  4015f4:	6b00003f 	cmp	w1, w0
  4015f8:	54fff308 	b.hi	401458 <_nl_find_msg+0x120>  // b.pmore
  4015fc:	b9400520 	ldr	w0, [x9, #4]
  401600:	f9400381 	ldr	x1, [x28]
  401604:	17ffff8d 	b	401438 <_nl_find_msg+0x100>
  401608:	2a1403e0 	mov	w0, w20
  40160c:	d2800018 	mov	x24, #0x0                   	// #0
  401610:	aa0003fa 	mov	x26, x0
  401614:	f90047a0 	str	x0, [x29, #136]
  401618:	14000003 	b	401624 <_nl_find_msg+0x2ec>
  40161c:	54fff740 	b.eq	401504 <_nl_find_msg+0x1cc>  // b.none
  401620:	91000778 	add	x24, x27, #0x1
  401624:	eb18035f 	cmp	x26, x24
  401628:	54fff2a9 	b.ls	40147c <_nl_find_msg+0x144>  // b.plast
  40162c:	b9401b96 	ldr	w22, [x28, #24]
  401630:	f9400397 	ldr	x23, [x28]
  401634:	f9401b95 	ldr	x21, [x28, #48]
  401638:	8b1a0306 	add	x6, x24, x26
  40163c:	710002df 	cmp	w22, #0x0
  401640:	aa1303e0 	mov	x0, x19
  401644:	d341fcdb 	lsr	x27, x6, #1
  401648:	8b1b0ea1 	add	x1, x21, x27, lsl #3
  40164c:	b9400421 	ldr	w1, [x1, #4]
  401650:	5ac00824 	rev	w4, w1
  401654:	1a840021 	csel	w1, w1, w4, eq  // eq = none
  401658:	8b0102e1 	add	x1, x23, x1
  40165c:	94004cb9 	bl	414940 <strcmp>
  401660:	7100001f 	cmp	w0, #0x0
  401664:	54fffdca 	b.ge	40161c <_nl_find_msg+0x2e4>  // b.tcont
  401668:	aa1b03fa 	mov	x26, x27
  40166c:	eb1b031f 	cmp	x24, x27
  401670:	54fffe43 	b.cc	401638 <_nl_find_msg+0x300>  // b.lo, b.ul, b.last
  401674:	17ffff82 	b	40147c <_nl_find_msg+0x144>
  401678:	94000404 	bl	402688 <_nl_load_domain>
  40167c:	17ffff42 	b	401384 <_nl_find_msg+0x4c>
  401680:	f94047a0 	ldr	x0, [x29, #136]
  401684:	cb00037a 	sub	x26, x27, x0
  401688:	f9402b80 	ldr	x0, [x28, #80]
  40168c:	d37cef5a 	lsl	x26, x26, #4
  401690:	8b1a0001 	add	x1, x0, x26
  401694:	f87a6818 	ldr	x24, [x0, x26]
  401698:	f9400433 	ldr	x19, [x1, #8]
  40169c:	b94077a0 	ldr	w0, [x29, #116]
  4016a0:	35fff540 	cbnz	w0, 401548 <_nl_find_msg+0x210>
  4016a4:	f94037a0 	ldr	x0, [x29, #104]
  4016a8:	f9000018 	str	x24, [x0]
  4016ac:	17ffff75 	b	401480 <_nl_find_msg+0x148>
  4016b0:	8b204273 	add	x19, x19, w0, uxtw
  4016b4:	110006b8 	add	w24, w21, #0x1
  4016b8:	17fffff9 	b	40169c <_nl_find_msg+0x364>
  4016bc:	d00003fa 	adrp	x26, 47f000 <main_arena+0x868>
  4016c0:	913b8340 	add	x0, x26, #0xee0
  4016c4:	b9401001 	ldr	w1, [x0, #16]
  4016c8:	34000501 	cbz	w1, 401768 <_nl_find_msg+0x430>
  4016cc:	f9400c16 	ldr	x22, [x0, #24]
  4016d0:	b5fff456 	cbnz	x22, 401558 <_nl_find_msg+0x220>
  4016d4:	900003e0 	adrp	x0, 47d000 <__FRAME_END__+0xf8fc>
  4016d8:	f947c000 	ldr	x0, [x0, #3968]
  4016dc:	d53bd041 	mrs	x1, tpidr_el0
  4016e0:	f8606820 	ldr	x0, [x1, x0]
  4016e4:	f9400000 	ldr	x0, [x0]
  4016e8:	f9405816 	ldr	x22, [x0, #176]
  4016ec:	17ffff9b 	b	401558 <_nl_find_msg+0x220>
  4016f0:	d0000260 	adrp	x0, 44f000 <free_slotinfo+0x8>
  4016f4:	f942bc00 	ldr	x0, [x0, #1400]
  4016f8:	b5000320 	cbnz	x0, 40175c <_nl_find_msg+0x424>
  4016fc:	d0000260 	adrp	x0, 44f000 <free_slotinfo+0x8>
  401700:	f942b800 	ldr	x0, [x0, #1392]
  401704:	b4000060 	cbz	x0, 401710 <_nl_find_msg+0x3d8>
  401708:	91020380 	add	x0, x28, #0x80
  40170c:	d503201f 	nop
  401710:	a9475780 	ldp	x0, x21, [x28, #112]
  401714:	f9003fa0 	str	x0, [x29, #120]
  401718:	b4000e95 	cbz	x21, 4018e8 <_nl_find_msg+0x5b0>
  40171c:	8b1506a2 	add	x2, x21, x21, lsl #1
  401720:	aa1503e3 	mov	x3, x21
  401724:	8b020c02 	add	x2, x0, x2, lsl #3
  401728:	d100605a 	sub	x26, x2, #0x18
  40172c:	14000004 	b	40173c <_nl_find_msg+0x404>
  401730:	f94047a3 	ldr	x3, [x29, #136]
  401734:	d100635a 	sub	x26, x26, #0x18
  401738:	b4000d83 	cbz	x3, 4018e8 <_nl_find_msg+0x5b0>
  40173c:	f9400340 	ldr	x0, [x26]
  401740:	d1000463 	sub	x3, x3, #0x1
  401744:	aa1a03f7 	mov	x23, x26
  401748:	aa1603e1 	mov	x1, x22
  40174c:	a9080fa3 	stp	x3, x3, [x29, #128]
  401750:	94004c7c 	bl	414940 <strcmp>
  401754:	35fffee0 	cbnz	w0, 401730 <_nl_find_msg+0x3f8>
  401758:	17ffff95 	b	4015ac <_nl_find_msg+0x274>
  40175c:	91020380 	add	x0, x28, #0x80
  401760:	d503201f 	nop
  401764:	17ffffe6 	b	4016fc <_nl_find_msg+0x3c4>
  401768:	d0000260 	adrp	x0, 44f000 <free_slotinfo+0x8>
  40176c:	91166000 	add	x0, x0, #0x598
  401770:	94001172 	bl	405d38 <getenv>
  401774:	aa0003f7 	mov	x23, x0
  401778:	b4000060 	cbz	x0, 401784 <_nl_find_msg+0x44c>
  40177c:	39400001 	ldrb	w1, [x0]
  401780:	35001d61 	cbnz	w1, 401b2c <_nl_find_msg+0x7f4>
  401784:	913b8340 	add	x0, x26, #0xee0
  401788:	f9400c16 	ldr	x22, [x0, #24]
  40178c:	913b835a 	add	x26, x26, #0xee0
  401790:	52800020 	mov	w0, #0x1                   	// #1
  401794:	b9001340 	str	w0, [x26, #16]
  401798:	17ffffce 	b	4016d0 <_nl_find_msg+0x398>
  40179c:	d00003fa 	adrp	x26, 47f000 <main_arena+0x868>
  4017a0:	913b8340 	add	x0, x26, #0xee0
  4017a4:	91008000 	add	x0, x0, #0x20
  4017a8:	52800021 	mov	w1, #0x1                   	// #1
  4017ac:	885ffc02 	ldaxr	w2, [x0]
  4017b0:	35000062 	cbnz	w2, 4017bc <_nl_find_msg+0x484>
  4017b4:	88037c01 	stxr	w3, w1, [x0]
  4017b8:	35ffffa3 	cbnz	w3, 4017ac <_nl_find_msg+0x474>
  4017bc:	7100005f 	cmp	w2, #0x0
  4017c0:	540022c1 	b.ne	401c18 <_nl_find_msg+0x8e0>  // b.any
  4017c4:	913b8340 	add	x0, x26, #0xee0
  4017c8:	5280001c 	mov	w28, #0x0                   	// #0
  4017cc:	aa0003f9 	mov	x25, x0
  4017d0:	d281fe15 	mov	x21, #0xff0                 	// #4080
  4017d4:	a9428402 	ldp	x2, x1, [x0, #40]
  4017d8:	91002040 	add	x0, x2, #0x8
  4017dc:	a90903b3 	stp	x19, x0, [x29, #144]
  4017e0:	f1001c3f 	cmp	x1, #0x7
  4017e4:	54000288 	b.hi	401834 <_nl_find_msg+0x4fc>  // b.pmore
  4017e8:	3400045c 	cbz	w28, 401870 <_nl_find_msg+0x538>
  4017ec:	1100079c 	add	w28, w28, #0x1
  4017f0:	f9400736 	ldr	x22, [x25, #8]
  4017f4:	53185f81 	lsl	w1, w28, #8
  4017f8:	aa1603e0 	mov	x0, x22
  4017fc:	4b1c0021 	sub	w1, w1, w28
  401800:	531c6c21 	lsl	w1, w1, #4
  401804:	93407c34 	sxtw	x20, w1
  401808:	f9001b34 	str	x20, [x25, #48]
  40180c:	aa1403e1 	mov	x1, x20
  401810:	940047b2 	bl	4136d8 <__libc_realloc>
  401814:	b4000420 	cbz	x0, 401898 <_nl_find_msg+0x560>
  401818:	d1002281 	sub	x1, x20, #0x8
  40181c:	f9000720 	str	x0, [x25, #8]
  401820:	91002002 	add	x2, x0, #0x8
  401824:	91004000 	add	x0, x0, #0x10
  401828:	a9028722 	stp	x2, x1, [x25, #40]
  40182c:	f9004fa0 	str	x0, [x29, #152]
  401830:	17ffffec 	b	4017e0 <_nl_find_msg+0x4a8>
  401834:	a94913a2 	ldp	x2, x4, [x29, #144]
  401838:	d1002021 	sub	x1, x1, #0x8
  40183c:	f94006e0 	ldr	x0, [x23, #8]
  401840:	910283a5 	add	x5, x29, #0xa0
  401844:	8b010084 	add	x4, x4, x1
  401848:	910243a1 	add	x1, x29, #0x90
  40184c:	910263a3 	add	x3, x29, #0x98
  401850:	8b180042 	add	x2, x2, x24
  401854:	94006841 	bl	41b958 <__gconv>
  401858:	721d7801 	ands	w1, w0, #0xfffffffb
  40185c:	540018e0 	b.eq	401b78 <_nl_find_msg+0x840>  // b.none
  401860:	7100141f 	cmp	w0, #0x5
  401864:	54001b81 	b.ne	401bd4 <_nl_find_msg+0x89c>  // b.any
  401868:	f9004bb3 	str	x19, [x29, #144]
  40186c:	17ffffdf 	b	4017e8 <_nl_find_msg+0x4b0>
  401870:	d281fe00 	mov	x0, #0xff0                 	// #4080
  401874:	f9001b35 	str	x21, [x25, #48]
  401878:	940045c2 	bl	412f80 <__libc_malloc>
  40187c:	b4000160 	cbz	x0, 4018a8 <_nl_find_msg+0x570>
  401880:	f9400722 	ldr	x2, [x25, #8]
  401884:	d281fd01 	mov	x1, #0xfe8                 	// #4072
  401888:	5280003c 	mov	w28, #0x1                   	// #1
  40188c:	f9000002 	str	x2, [x0]
  401890:	f9000720 	str	x0, [x25, #8]
  401894:	17ffffe3 	b	401820 <_nl_find_msg+0x4e8>
  401898:	f94002c1 	ldr	x1, [x22]
  40189c:	aa1603e0 	mov	x0, x22
  4018a0:	f9000721 	str	x1, [x25, #8]
  4018a4:	9400474f 	bl	4135e0 <__free>
  4018a8:	913b835a 	add	x26, x26, #0xee0
  4018ac:	52800002 	mov	w2, #0x0                   	// #0
  4018b0:	91008340 	add	x0, x26, #0x20
  4018b4:	a902ff5f 	stp	xzr, xzr, [x26, #40]
  4018b8:	885f7c01 	ldxr	w1, [x0]
  4018bc:	8803fc02 	stlxr	w3, w2, [x0]
  4018c0:	35ffffc3 	cbnz	w3, 4018b8 <_nl_find_msg+0x580>
  4018c4:	7100043f 	cmp	w1, #0x1
  4018c8:	92800013 	mov	x19, #0xffffffffffffffff    	// #-1
  4018cc:	54ffddad 	b.le	401480 <_nl_find_msg+0x148>
  4018d0:	d2801021 	mov	x1, #0x81                  	// #129
  4018d4:	d2800022 	mov	x2, #0x1                   	// #1
  4018d8:	d2800003 	mov	x3, #0x0                   	// #0
  4018dc:	d2800c48 	mov	x8, #0x62                  	// #98
  4018e0:	d4000001 	svc	#0x0
  4018e4:	17fffee7 	b	401480 <_nl_find_msg+0x148>
  4018e8:	910006ba 	add	x26, x21, #0x1
  4018ec:	f9403fa0 	ldr	x0, [x29, #120]
  4018f0:	8b1a075a 	add	x26, x26, x26, lsl #1
  4018f4:	d37df357 	lsl	x23, x26, #3
  4018f8:	b4001120 	cbz	x0, 401b1c <_nl_find_msg+0x7e4>
  4018fc:	aa1703e1 	mov	x1, x23
  401900:	94004776 	bl	4136d8 <__libc_realloc>
  401904:	aa0003fa 	mov	x26, x0
  401908:	b40012ba 	cbz	x26, 401b5c <_nl_find_msg+0x824>
  40190c:	f9003b9a 	str	x26, [x28, #112]
  401910:	aa1603e0 	mov	x0, x22
  401914:	94004d13 	bl	414d60 <__strdup>
  401918:	aa0003f6 	mov	x22, x0
  40191c:	b4001200 	cbz	x0, 401b5c <_nl_find_msg+0x824>
  401920:	d10062e0 	sub	x0, x23, #0x18
  401924:	92800001 	mov	x1, #0xffffffffffffffff    	// #-1
  401928:	8b000357 	add	x23, x26, x0
  40192c:	d00002e2 	adrp	x2, 45f000 <translit_from_idx+0x14b8>
  401930:	910283a4 	add	x4, x29, #0xa0
  401934:	52800003 	mov	w3, #0x0                   	// #0
  401938:	f8206b56 	str	x22, [x26, x0]
  40193c:	912e0042 	add	x2, x2, #0xb80
  401940:	f90006e1 	str	x1, [x23, #8]
  401944:	aa1903e0 	mov	x0, x25
  401948:	f94033a1 	ldr	x1, [x29, #96]
  40194c:	97fffe7b 	bl	401338 <_nl_find_msg>
  401950:	aa0003e1 	mov	x1, x0
  401954:	b100041f 	cmn	x0, #0x1
  401958:	54001780 	b.eq	401c48 <_nl_find_msg+0x910>  // b.none
  40195c:	b4000980 	cbz	x0, 401a8c <_nl_find_msg+0x754>
  401960:	d0000261 	adrp	x1, 44f000 <free_slotinfo+0x8>
  401964:	9116a021 	add	x1, x1, #0x5a8
  401968:	94004eee 	bl	415520 <strstr>
  40196c:	b4000900 	cbz	x0, 401a8c <_nl_find_msg+0x754>
  401970:	91002019 	add	x25, x0, #0x8
  401974:	d0000261 	adrp	x1, 44f000 <free_slotinfo+0x8>
  401978:	9116e021 	add	x1, x1, #0x5b8
  40197c:	aa1903e0 	mov	x0, x25
  401980:	94004c9e 	bl	414bf8 <strcspn>
  401984:	91007c01 	add	x1, x0, #0x1f
  401988:	aa0003e2 	mov	x2, x0
  40198c:	927cec20 	and	x0, x1, #0xfffffffffffffff0
  401990:	cb2063ff 	sub	sp, sp, x0
  401994:	aa1903e1 	mov	x1, x25
  401998:	910003f9 	mov	x25, sp
  40199c:	aa1903e0 	mov	x0, x25
  4019a0:	940050a0 	bl	415c20 <__mempcpy>
  4019a4:	aa1603e1 	mov	x1, x22
  4019a8:	3900001f 	strb	wzr, [x0]
  4019ac:	d2800003 	mov	x3, #0x0                   	// #0
  4019b0:	14000004 	b	4019c0 <_nl_find_msg+0x688>
  4019b4:	7100bc1f 	cmp	w0, #0x2f
  4019b8:	91000421 	add	x1, x1, #0x1
  4019bc:	9a831463 	cinc	x3, x3, eq  // eq = none
  4019c0:	39400020 	ldrb	w0, [x1]
  4019c4:	35ffff80 	cbnz	w0, 4019b4 <_nl_find_msg+0x67c>
  4019c8:	cb160020 	sub	x0, x1, x22
  4019cc:	394002c2 	ldrb	w2, [x22]
  4019d0:	9100a400 	add	x0, x0, #0x29
  4019d4:	927cec00 	and	x0, x0, #0xfffffffffffffff0
  4019d8:	cb2063ff 	sub	sp, sp, x0
  4019dc:	910003e0 	mov	x0, sp
  4019e0:	34001522 	cbz	w2, 401c84 <_nl_find_msg+0x94c>
  4019e4:	d00002e7 	adrp	x7, 45f000 <translit_from_idx+0x14b8>
  4019e8:	aa1603e4 	mov	x4, x22
  4019ec:	aa0003e1 	mov	x1, x0
  4019f0:	f940d0e8 	ldr	x8, [x7, #416]
  4019f4:	2a0203e7 	mov	w7, w2
  4019f8:	38401c82 	ldrb	w2, [x4, #1]!
  4019fc:	b8677907 	ldr	w7, [x8, x7, lsl #2]
  401a00:	38001427 	strb	w7, [x1], #1
  401a04:	35ffff82 	cbnz	w2, 4019f4 <_nl_find_msg+0x6bc>
  401a08:	f100047f 	cmp	x3, #0x1
  401a0c:	540012c9 	b.ls	401c64 <_nl_find_msg+0x92c>  // b.plast
  401a10:	3900003f 	strb	wzr, [x1]
  401a14:	d2800004 	mov	x4, #0x0                   	// #0
  401a18:	aa1903e1 	mov	x1, x25
  401a1c:	14000004 	b	401a2c <_nl_find_msg+0x6f4>
  401a20:	7100bc5f 	cmp	w2, #0x2f
  401a24:	91000421 	add	x1, x1, #0x1
  401a28:	9a841484 	cinc	x4, x4, eq  // eq = none
  401a2c:	39400022 	ldrb	w2, [x1]
  401a30:	35ffff82 	cbnz	w2, 401a20 <_nl_find_msg+0x6e8>
  401a34:	cb190021 	sub	x1, x1, x25
  401a38:	39400322 	ldrb	w2, [x25]
  401a3c:	91008421 	add	x1, x1, #0x21
  401a40:	927cec21 	and	x1, x1, #0xfffffffffffffff0
  401a44:	cb2163ff 	sub	sp, sp, x1
  401a48:	910003e1 	mov	x1, sp
  401a4c:	340012a2 	cbz	w2, 401ca0 <_nl_find_msg+0x968>
  401a50:	d00002e7 	adrp	x7, 45f000 <translit_from_idx+0x14b8>
  401a54:	aa0103e3 	mov	x3, x1
  401a58:	f940d0e8 	ldr	x8, [x7, #416]
  401a5c:	2a0203e7 	mov	w7, w2
  401a60:	38401f22 	ldrb	w2, [x25, #1]!
  401a64:	b8677907 	ldr	w7, [x8, x7, lsl #2]
  401a68:	38001467 	strb	w7, [x3], #1
  401a6c:	35ffff82 	cbnz	w2, 401a5c <_nl_find_msg+0x724>
  401a70:	f100049f 	cmp	x4, #0x1
  401a74:	54000ee9 	b.ls	401c50 <_nl_find_msg+0x918>  // b.plast
  401a78:	3900007f 	strb	wzr, [x3]
  401a7c:	910022e2 	add	x2, x23, #0x8
  401a80:	52800023 	mov	w3, #0x1                   	// #1
  401a84:	94006695 	bl	41b4d8 <__gconv_open>
  401a88:	35000cc0 	cbnz	w0, 401c20 <_nl_find_msg+0x8e8>
  401a8c:	f9403f80 	ldr	x0, [x28, #120]
  401a90:	f9000aff 	str	xzr, [x23, #16]
  401a94:	91000400 	add	x0, x0, #0x1
  401a98:	f9003f80 	str	x0, [x28, #120]
  401a9c:	17fffec4 	b	4015ac <_nl_find_msg+0x274>
  401aa0:	92800013 	mov	x19, #0xffffffffffffffff    	// #-1
  401aa4:	17fffe77 	b	401480 <_nl_find_msg+0x148>
  401aa8:	d00003fa 	adrp	x26, 47f000 <main_arena+0x868>
  401aac:	913b8340 	add	x0, x26, #0xee0
  401ab0:	91008000 	add	x0, x0, #0x20
  401ab4:	52800021 	mov	w1, #0x1                   	// #1
  401ab8:	885ffc02 	ldaxr	w2, [x0]
  401abc:	35000062 	cbnz	w2, 401ac8 <_nl_find_msg+0x790>
  401ac0:	88037c01 	stxr	w3, w1, [x0]
  401ac4:	35ffffa3 	cbnz	w3, 401ab8 <_nl_find_msg+0x780>
  401ac8:	7100005f 	cmp	w2, #0x0
  401acc:	54000e61 	b.ne	401c98 <_nl_find_msg+0x960>  // b.any
  401ad0:	f9400ae0 	ldr	x0, [x23, #16]
  401ad4:	b4000940 	cbz	x0, 401bfc <_nl_find_msg+0x8c4>
  401ad8:	913b8340 	add	x0, x26, #0xee0
  401adc:	52800002 	mov	w2, #0x0                   	// #0
  401ae0:	91008000 	add	x0, x0, #0x20
  401ae4:	885f7c01 	ldxr	w1, [x0]
  401ae8:	8803fc02 	stlxr	w3, w2, [x0]
  401aec:	35ffffc3 	cbnz	w3, 401ae4 <_nl_find_msg+0x7ac>
  401af0:	7100043f 	cmp	w1, #0x1
  401af4:	5400006c 	b.gt	401b00 <_nl_find_msg+0x7c8>
  401af8:	f9400ae0 	ldr	x0, [x23, #16]
  401afc:	17fffeb6 	b	4015d4 <_nl_find_msg+0x29c>
  401b00:	d2801021 	mov	x1, #0x81                  	// #129
  401b04:	d2800022 	mov	x2, #0x1                   	// #1
  401b08:	d2800003 	mov	x3, #0x0                   	// #0
  401b0c:	d2800c48 	mov	x8, #0x62                  	// #98
  401b10:	d4000001 	svc	#0x0
  401b14:	f9400ae0 	ldr	x0, [x23, #16]
  401b18:	17fffeaf 	b	4015d4 <_nl_find_msg+0x29c>
  401b1c:	aa1703e0 	mov	x0, x23
  401b20:	94004518 	bl	412f80 <__libc_malloc>
  401b24:	aa0003fa 	mov	x26, x0
  401b28:	17ffff78 	b	401908 <_nl_find_msg+0x5d0>
  401b2c:	94004ca5 	bl	414dc0 <__strlen>
  401b30:	91000415 	add	x21, x0, #0x1
  401b34:	aa1503e0 	mov	x0, x21
  401b38:	94004512 	bl	412f80 <__libc_malloc>
  401b3c:	aa0003f6 	mov	x22, x0
  401b40:	b4000080 	cbz	x0, 401b50 <_nl_find_msg+0x818>
  401b44:	aa1503e2 	mov	x2, x21
  401b48:	aa1703e1 	mov	x1, x23
  401b4c:	97fff9c1 	bl	400250 <.plt+0x10>
  401b50:	913b8340 	add	x0, x26, #0xee0
  401b54:	f9000c16 	str	x22, [x0, #24]
  401b58:	17ffff0d 	b	40178c <_nl_find_msg+0x454>
  401b5c:	d0000260 	adrp	x0, 44f000 <free_slotinfo+0x8>
  401b60:	f942bc00 	ldr	x0, [x0, #1400]
  401b64:	b4fff9e0 	cbz	x0, 401aa0 <_nl_find_msg+0x768>
  401b68:	91020380 	add	x0, x28, #0x80
  401b6c:	92800013 	mov	x19, #0xffffffffffffffff    	// #-1
  401b70:	d503201f 	nop
  401b74:	17fffe43 	b	401480 <_nl_find_msg+0x148>
  401b78:	913b835a 	add	x26, x26, #0xee0
  401b7c:	f9404fa3 	ldr	x3, [x29, #152]
  401b80:	f9400ae8 	ldr	x8, [x23, #16]
  401b84:	d37df367 	lsl	x7, x27, #3
  401b88:	91008340 	add	x0, x26, #0x20
  401b8c:	a9428b45 	ldp	x5, x2, [x26, #40]
  401b90:	cb050064 	sub	x4, x3, x5
  401b94:	cb040042 	sub	x2, x2, x4
  401b98:	d1002084 	sub	x4, x4, #0x8
  401b9c:	92400849 	and	x9, x2, #0x7
  401ba0:	f90000a4 	str	x4, [x5]
  401ba4:	8b090063 	add	x3, x3, x9
  401ba8:	927df042 	and	x2, x2, #0xfffffffffffffff8
  401bac:	f83b7905 	str	x5, [x8, x27, lsl #3]
  401bb0:	a9028b43 	stp	x3, x2, [x26, #40]
  401bb4:	885f7c02 	ldxr	w2, [x0]
  401bb8:	8803fc01 	stlxr	w3, w1, [x0]
  401bbc:	35ffffc3 	cbnz	w3, 401bb4 <_nl_find_msg+0x87c>
  401bc0:	7100045f 	cmp	w2, #0x1
  401bc4:	5400084c 	b.gt	401ccc <_nl_find_msg+0x994>
  401bc8:	f9400ae0 	ldr	x0, [x23, #16]
  401bcc:	f8676800 	ldr	x0, [x0, x7]
  401bd0:	17fffe85 	b	4015e4 <_nl_find_msg+0x2ac>
  401bd4:	913b8340 	add	x0, x26, #0xee0
  401bd8:	52800002 	mov	w2, #0x0                   	// #0
  401bdc:	91008000 	add	x0, x0, #0x20
  401be0:	885f7c01 	ldxr	w1, [x0]
  401be4:	8803fc02 	stlxr	w3, w2, [x0]
  401be8:	35ffffc3 	cbnz	w3, 401be0 <_nl_find_msg+0x8a8>
  401bec:	d2800013 	mov	x19, #0x0                   	// #0
  401bf0:	7100043f 	cmp	w1, #0x1
  401bf4:	54ffc46d 	b.le	401480 <_nl_find_msg+0x148>
  401bf8:	17ffff36 	b	4018d0 <_nl_find_msg+0x598>
  401bfc:	b9404380 	ldr	w0, [x28, #64]
  401c00:	d2800101 	mov	x1, #0x8                   	// #8
  401c04:	0b000280 	add	w0, w20, w0
  401c08:	940047d4 	bl	413b58 <__calloc>
  401c0c:	b4000400 	cbz	x0, 401c8c <_nl_find_msg+0x954>
  401c10:	f9000ae0 	str	x0, [x23, #16]
  401c14:	17fffeec 	b	4017c4 <_nl_find_msg+0x48c>
  401c18:	94005fec 	bl	419bc8 <__lll_lock_wait_private>
  401c1c:	17fffeea 	b	4017c4 <_nl_find_msg+0x48c>
  401c20:	3100041f 	cmn	w0, #0x1
  401c24:	54000600 	b.eq	401ce4 <_nl_find_msg+0x9ac>  // b.none
  401c28:	d0000260 	adrp	x0, 44f000 <free_slotinfo+0x8>
  401c2c:	f942bc00 	ldr	x0, [x0, #1400]
  401c30:	b4000060 	cbz	x0, 401c3c <_nl_find_msg+0x904>
  401c34:	91020380 	add	x0, x28, #0x80
  401c38:	d503201f 	nop
  401c3c:	aa1603e0 	mov	x0, x22
  401c40:	94004668 	bl	4135e0 <__free>
  401c44:	d2800001 	mov	x1, #0x0                   	// #0
  401c48:	aa0103f3 	mov	x19, x1
  401c4c:	17fffe0d 	b	401480 <_nl_find_msg+0x148>
  401c50:	528005e2 	mov	w2, #0x2f                  	// #47
  401c54:	39000062 	strb	w2, [x3]
  401c58:	b4000104 	cbz	x4, 401c78 <_nl_find_msg+0x940>
  401c5c:	91000463 	add	x3, x3, #0x1
  401c60:	17ffff86 	b	401a78 <_nl_find_msg+0x740>
  401c64:	528005e2 	mov	w2, #0x2f                  	// #47
  401c68:	39000022 	strb	w2, [x1]
  401c6c:	b40001e3 	cbz	x3, 401ca8 <_nl_find_msg+0x970>
  401c70:	91000421 	add	x1, x1, #0x1
  401c74:	17ffff67 	b	401a10 <_nl_find_msg+0x6d8>
  401c78:	39000462 	strb	w2, [x3, #1]
  401c7c:	91000863 	add	x3, x3, #0x2
  401c80:	17ffff7e 	b	401a78 <_nl_find_msg+0x740>
  401c84:	aa0003e1 	mov	x1, x0
  401c88:	17ffff60 	b	401a08 <_nl_find_msg+0x6d0>
  401c8c:	92800000 	mov	x0, #0xffffffffffffffff    	// #-1
  401c90:	f9000ae0 	str	x0, [x23, #16]
  401c94:	17ffff91 	b	401ad8 <_nl_find_msg+0x7a0>
  401c98:	94005fcc 	bl	419bc8 <__lll_lock_wait_private>
  401c9c:	17ffff8d 	b	401ad0 <_nl_find_msg+0x798>
  401ca0:	aa0103e3 	mov	x3, x1
  401ca4:	17ffff73 	b	401a70 <_nl_find_msg+0x738>
  401ca8:	39000422 	strb	w2, [x1, #1]
  401cac:	d28a4a82 	mov	x2, #0x5254                	// #21076
  401cb0:	f2a9c822 	movk	x2, #0x4e41, lsl #16
  401cb4:	91002821 	add	x1, x1, #0xa
  401cb8:	f2c98a62 	movk	x2, #0x4c53, lsl #32
  401cbc:	f2ea8922 	movk	x2, #0x5449, lsl #48
  401cc0:	f81f8022 	stur	x2, [x1, #-8]
  401cc4:	17ffff53 	b	401a10 <_nl_find_msg+0x6d8>
  401cc8:	940060b0 	bl	419f88 <__stack_chk_fail>
  401ccc:	d2801021 	mov	x1, #0x81                  	// #129
  401cd0:	d2800022 	mov	x2, #0x1                   	// #1
  401cd4:	d2800003 	mov	x3, #0x0                   	// #0
  401cd8:	d2800c48 	mov	x8, #0x62                  	// #98
  401cdc:	d4000001 	svc	#0x0
  401ce0:	17ffffba 	b	401bc8 <_nl_find_msg+0x890>
  401ce4:	92800000 	mov	x0, #0xffffffffffffffff    	// #-1
  401ce8:	f90006e0 	str	x0, [x23, #8]
  401cec:	17ffff68 	b	401a8c <_nl_find_msg+0x754>

0000000000401cf0 <__dcigettext>:
  401cf0:	a9ad7bfd 	stp	x29, x30, [sp, #-304]!
  401cf4:	910003fd 	mov	x29, sp
  401cf8:	a90363f7 	stp	x23, x24, [sp, #48]
  401cfc:	900003f7 	adrp	x23, 47d000 <__FRAME_END__+0xf8fc>
  401d00:	912862e6 	add	x6, x23, #0xa18
  401d04:	a90153f3 	stp	x19, x20, [sp, #16]
  401d08:	f94000c7 	ldr	x7, [x6]
  401d0c:	f90097a7 	str	x7, [x29, #296]
  401d10:	d2800007 	mov	x7, #0x0                   	// #0
  401d14:	a9025bf5 	stp	x21, x22, [sp, #32]
  401d18:	a9046bf9 	stp	x25, x26, [sp, #64]
  401d1c:	a90573fb 	stp	x27, x28, [sp, #80]
  401d20:	f90053a2 	str	x2, [x29, #160]
  401d24:	f9005ba4 	str	x4, [x29, #176]
  401d28:	b900bfa3 	str	w3, [x29, #188]
  401d2c:	f9006fbf 	str	xzr, [x29, #216]
  401d30:	b4002a81 	cbz	x1, 402280 <__dcigettext+0x590>
  401d34:	710030bf 	cmp	w5, #0xc
  401d38:	aa0103f8 	mov	x24, x1
  401d3c:	2a0503f9 	mov	w25, w5
  401d40:	7a4698a4 	ccmp	w5, #0x6, #0x4, ls  // ls = plast
  401d44:	540002c1 	b.ne	401d9c <__dcigettext+0xac>  // b.any
  401d48:	b940bfa0 	ldr	w0, [x29, #188]
  401d4c:	aa1803e4 	mov	x4, x24
  401d50:	7100001f 	cmp	w0, #0x0
  401d54:	f9405ba0 	ldr	x0, [x29, #176]
  401d58:	fa411804 	ccmp	x0, #0x1, #0x4, ne  // ne = any
  401d5c:	54000040 	b.eq	401d64 <__dcigettext+0x74>  // b.none
  401d60:	f94053a4 	ldr	x4, [x29, #160]
  401d64:	912862f7 	add	x23, x23, #0xa18
  401d68:	aa0403e0 	mov	x0, x4
  401d6c:	f94097a2 	ldr	x2, [x29, #296]
  401d70:	f94002e1 	ldr	x1, [x23]
  401d74:	ca010041 	eor	x1, x2, x1
  401d78:	b5003361 	cbnz	x1, 4023e4 <__dcigettext+0x6f4>
  401d7c:	910003bf 	mov	sp, x29
  401d80:	a94153f3 	ldp	x19, x20, [sp, #16]
  401d84:	a9425bf5 	ldp	x21, x22, [sp, #32]
  401d88:	a94363f7 	ldp	x23, x24, [sp, #48]
  401d8c:	a9446bf9 	ldp	x25, x26, [sp, #64]
  401d90:	a94573fb 	ldp	x27, x28, [sp, #80]
  401d94:	a8d37bfd 	ldp	x29, x30, [sp], #304
  401d98:	d65f03c0 	ret
  401d9c:	900003e1 	adrp	x1, 47d000 <__FRAME_END__+0xf8fc>
  401da0:	f947c421 	ldr	x1, [x1, #3976]
  401da4:	d53bd042 	mrs	x2, tpidr_el0
  401da8:	d0000273 	adrp	x19, 44f000 <free_slotinfo+0x8>
  401dac:	aa0003f6 	mov	x22, x0
  401db0:	a9080ba1 	stp	x1, x2, [x29, #128]
  401db4:	f942c260 	ldr	x0, [x19, #1408]
  401db8:	b8616841 	ldr	w1, [x2, x1]
  401dbc:	b900bba1 	str	w1, [x29, #184]
  401dc0:	b4001580 	cbz	x0, 402070 <__dcigettext+0x380>
  401dc4:	d00003e1 	adrp	x1, 47f000 <main_arena+0x868>
  401dc8:	f00003e0 	adrp	x0, 480000 <locale_alias_path.10139>
  401dcc:	aa0103f4 	mov	x20, x1
  401dd0:	91162000 	add	x0, x0, #0x588
  401dd4:	f90057a1 	str	x1, [x29, #168]
  401dd8:	d503201f 	nop
  401ddc:	913b8280 	add	x0, x20, #0xee0
  401de0:	9100e000 	add	x0, x0, #0x38
  401de4:	d503201f 	nop
  401de8:	b4001616 	cbz	x22, 4020a8 <__dcigettext+0x3b8>
  401dec:	2a1903e0 	mov	w0, w25
  401df0:	f90077b6 	str	x22, [x29, #232]
  401df4:	b900f3b9 	str	w25, [x29, #240]
  401df8:	f90087bf 	str	xzr, [x29, #264]
  401dfc:	f90093b8 	str	x24, [x29, #288]
  401e00:	94008cf6 	bl	4251d8 <__current_locale_name>
  401e04:	f9003fa0 	str	x0, [x29, #120]
  401e08:	f9007fa0 	str	x0, [x29, #248]
  401e0c:	f94057a0 	ldr	x0, [x29, #168]
  401e10:	913b8000 	add	x0, x0, #0xee0
  401e14:	9101c000 	add	x0, x0, #0x70
  401e18:	d503201f 	nop
  401e1c:	f94057a0 	ldr	x0, [x29, #168]
  401e20:	913b8013 	add	x19, x0, #0xee0
  401e24:	90000000 	adrp	x0, 401000 <__assert_fail+0x48>
  401e28:	aa1303e1 	mov	x1, x19
  401e2c:	9108e002 	add	x2, x0, #0x238
  401e30:	9103a3a0 	add	x0, x29, #0xe8
  401e34:	94005bff 	bl	418e30 <__tfind>
  401e38:	f9004fa0 	str	x0, [x29, #152]
  401e3c:	d0000260 	adrp	x0, 44f000 <free_slotinfo+0x8>
  401e40:	f942c400 	ldr	x0, [x0, #1416]
  401e44:	b4000060 	cbz	x0, 401e50 <__dcigettext+0x160>
  401e48:	9101c260 	add	x0, x19, #0x70
  401e4c:	d503201f 	nop
  401e50:	f9404fa0 	ldr	x0, [x29, #152]
  401e54:	b40000e0 	cbz	x0, 401e70 <__dcigettext+0x180>
  401e58:	f9400000 	ldr	x0, [x0]
  401e5c:	90000c01 	adrp	x1, 581000 <memory_slot_ptr+0x588>
  401e60:	b94eb821 	ldr	w1, [x1, #3768]
  401e64:	b9401802 	ldr	w2, [x0, #24]
  401e68:	6b01005f 	cmp	w2, w1
  401e6c:	54001d40 	b.eq	402214 <__dcigettext+0x524>  // b.none
  401e70:	90000c00 	adrp	x0, 581000 <memory_slot_ptr+0x588>
  401e74:	f9475813 	ldr	x19, [x0, #3760]
  401e78:	b50000b3 	cbnz	x19, 401e8c <__dcigettext+0x19c>
  401e7c:	140000df 	b	4021f8 <__dcigettext+0x508>
  401e80:	54001c2b 	b.lt	402204 <__dcigettext+0x514>  // b.tstop
  401e84:	f9400273 	ldr	x19, [x19]
  401e88:	b4001b93 	cbz	x19, 4021f8 <__dcigettext+0x508>
  401e8c:	91006261 	add	x1, x19, #0x18
  401e90:	aa1603e0 	mov	x0, x22
  401e94:	94004aab 	bl	414940 <strcmp>
  401e98:	7100001f 	cmp	w0, #0x0
  401e9c:	54ffff21 	b.ne	401e80 <__dcigettext+0x190>  // b.any
  401ea0:	f940067a 	ldr	x26, [x19, #8]
  401ea4:	39400340 	ldrb	w0, [x26]
  401ea8:	7100bc1f 	cmp	w0, #0x2f
  401eac:	54000220 	b.eq	401ef0 <__dcigettext+0x200>  // b.none
  401eb0:	d2800001 	mov	x1, #0x0                   	// #0
  401eb4:	d2800000 	mov	x0, #0x0                   	// #0
  401eb8:	94005874 	bl	418088 <__getcwd>
  401ebc:	aa0003f4 	mov	x20, x0
  401ec0:	b4000b80 	cbz	x0, 402030 <__dcigettext+0x340>
  401ec4:	aa0003e2 	mov	x2, x0
  401ec8:	d0000261 	adrp	x1, 44f000 <free_slotinfo+0x8>
  401ecc:	aa1a03e3 	mov	x3, x26
  401ed0:	91170021 	add	x1, x1, #0x5c0
  401ed4:	910363a0 	add	x0, x29, #0xd8
  401ed8:	940012c2 	bl	4069e0 <___asprintf>
  401edc:	2a0003f5 	mov	w21, w0
  401ee0:	aa1403e0 	mov	x0, x20
  401ee4:	940045bf 	bl	4135e0 <__free>
  401ee8:	37f81cd5 	tbnz	w21, #31, 402280 <__dcigettext+0x590>
  401eec:	f9406fba 	ldr	x26, [x29, #216]
  401ef0:	b0000282 	adrp	x2, 452000 <builtin_aliases+0x288>
  401ef4:	912f8042 	add	x2, x2, #0xbe0
  401ef8:	b0000295 	adrp	x21, 452000 <builtin_aliases+0x288>
  401efc:	912d42a1 	add	x1, x21, #0xb50
  401f00:	2a1903e0 	mov	w0, w25
  401f04:	d000027b 	adrp	x27, 44f000 <free_slotinfo+0x8>
  401f08:	3879c855 	ldrb	w21, [x2, w25, sxtw]
  401f0c:	8b0102b5 	add	x21, x21, x1
  401f10:	94008cb2 	bl	4251d8 <__current_locale_name>
  401f14:	91172361 	add	x1, x27, #0x5c8
  401f18:	aa0003f4 	mov	x20, x0
  401f1c:	94004a89 	bl	414940 <strcmp>
  401f20:	35001a00 	cbnz	w0, 402260 <__dcigettext+0x570>
  401f24:	aa1603e0 	mov	x0, x22
  401f28:	94004ba6 	bl	414dc0 <__strlen>
  401f2c:	aa0003fc 	mov	x28, x0
  401f30:	aa1503e0 	mov	x0, x21
  401f34:	f90037bc 	str	x28, [x29, #104]
  401f38:	94004ba2 	bl	414dc0 <__strlen>
  401f3c:	8b1c0000 	add	x0, x0, x28
  401f40:	aa1503e1 	mov	x1, x21
  401f44:	91008c00 	add	x0, x0, #0x23
  401f48:	927cec00 	and	x0, x0, #0xfffffffffffffff0
  401f4c:	cb2063ff 	sub	sp, sp, x0
  401f50:	9100eb80 	add	x0, x28, #0x3a
  401f54:	f9003ba0 	str	x0, [x29, #112]
  401f58:	910003e0 	mov	x0, sp
  401f5c:	f90063a0 	str	x0, [x29, #192]
  401f60:	94004f48 	bl	415c80 <__stpcpy>
  401f64:	528005e1 	mov	w1, #0x2f                  	// #47
  401f68:	78001401 	strh	w1, [x0], #1
  401f6c:	aa1c03e2 	mov	x2, x28
  401f70:	aa1603e1 	mov	x1, x22
  401f74:	94004f2b 	bl	415c20 <__mempcpy>
  401f78:	528da5c1 	mov	w1, #0x6d2e                	// #27950
  401f7c:	72a00de1 	movk	w1, #0x6f, lsl #16
  401f80:	b9000001 	str	w1, [x0]
  401f84:	aa1403e0 	mov	x0, x20
  401f88:	94004b8e 	bl	414dc0 <__strlen>
  401f8c:	91007c00 	add	x0, x0, #0x1f
  401f90:	927cec00 	and	x0, x0, #0xfffffffffffffff0
  401f94:	cb2063ff 	sub	sp, sp, x0
  401f98:	d0000260 	adrp	x0, 44f000 <free_slotinfo+0x8>
  401f9c:	910003f5 	mov	x21, sp
  401fa0:	91178000 	add	x0, x0, #0x5e0
  401fa4:	f90067a0 	str	x0, [x29, #200]
  401fa8:	900003e0 	adrp	x0, 47d000 <__FRAME_END__+0xf8fc>
  401fac:	913b8000 	add	x0, x0, #0xee0
  401fb0:	f9004ba0 	str	x0, [x29, #144]
  401fb4:	d503201f 	nop
  401fb8:	39400280 	ldrb	w0, [x20]
  401fbc:	7100e81f 	cmp	w0, #0x3a
  401fc0:	540008e0 	b.eq	4020dc <__dcigettext+0x3ec>  // b.none
  401fc4:	35000900 	cbnz	w0, 4020e4 <__dcigettext+0x3f4>
  401fc8:	52800860 	mov	w0, #0x43                  	// #67
  401fcc:	790002a0 	strh	w0, [x21]
  401fd0:	91172361 	add	x1, x27, #0x5c8
  401fd4:	aa1503e0 	mov	x0, x21
  401fd8:	94004a5a 	bl	414940 <strcmp>
  401fdc:	340002a0 	cbz	w0, 402030 <__dcigettext+0x340>
  401fe0:	f94067a1 	ldr	x1, [x29, #200]
  401fe4:	aa1503e0 	mov	x0, x21
  401fe8:	94004a56 	bl	414940 <strcmp>
  401fec:	34000220 	cbz	w0, 402030 <__dcigettext+0x340>
  401ff0:	f94063a2 	ldr	x2, [x29, #192]
  401ff4:	aa1303e3 	mov	x3, x19
  401ff8:	aa1503e1 	mov	x1, x21
  401ffc:	aa1a03e0 	mov	x0, x26
  402000:	940000fa 	bl	4023e8 <_nl_find_domain>
  402004:	aa0003fc 	mov	x28, x0
  402008:	b4fffd80 	cbz	x0, 401fb8 <__dcigettext+0x2c8>
  40200c:	910383a4 	add	x4, x29, #0xe0
  402010:	52800023 	mov	w3, #0x1                   	// #1
  402014:	aa1803e2 	mov	x2, x24
  402018:	aa1303e1 	mov	x1, x19
  40201c:	97fffcc7 	bl	401338 <_nl_find_msg>
  402020:	b4000800 	cbz	x0, 402120 <__dcigettext+0x430>
  402024:	aa0003e4 	mov	x4, x0
  402028:	b100041f 	cmn	x0, #0x1
  40202c:	54000a61 	b.ne	402178 <__dcigettext+0x488>  // b.any
  402030:	f9406fa0 	ldr	x0, [x29, #216]
  402034:	9400456b 	bl	4135e0 <__free>
  402038:	b0000260 	adrp	x0, 44f000 <free_slotinfo+0x8>
  40203c:	f942c400 	ldr	x0, [x0, #1416]
  402040:	b4000100 	cbz	x0, 402060 <__dcigettext+0x370>
  402044:	f94057a0 	ldr	x0, [x29, #168]
  402048:	913b8000 	add	x0, x0, #0xee0
  40204c:	9100e000 	add	x0, x0, #0x38
  402050:	d503201f 	nop
  402054:	d00003e0 	adrp	x0, 480000 <locale_alias_path.10139>
  402058:	91162000 	add	x0, x0, #0x588
  40205c:	d503201f 	nop
  402060:	a94803a1 	ldp	x1, x0, [x29, #128]
  402064:	b940bba2 	ldr	w2, [x29, #184]
  402068:	b8216802 	str	w2, [x0, x1]
  40206c:	17ffff37 	b	401d48 <__dcigettext+0x58>
  402070:	b4000196 	cbz	x22, 4020a0 <__dcigettext+0x3b0>
  402074:	b00003e1 	adrp	x1, 47f000 <main_arena+0x868>
  402078:	2a0503e0 	mov	w0, w5
  40207c:	f90057a1 	str	x1, [x29, #168]
  402080:	f90077b6 	str	x22, [x29, #232]
  402084:	b900f3a5 	str	w5, [x29, #240]
  402088:	f90087bf 	str	xzr, [x29, #264]
  40208c:	f90093b8 	str	x24, [x29, #288]
  402090:	94008c52 	bl	4251d8 <__current_locale_name>
  402094:	f9003fa0 	str	x0, [x29, #120]
  402098:	f9007fa0 	str	x0, [x29, #248]
  40209c:	17ffff60 	b	401e1c <__dcigettext+0x12c>
  4020a0:	b00003e0 	adrp	x0, 47f000 <main_arena+0x868>
  4020a4:	f90057a0 	str	x0, [x29, #168]
  4020a8:	900003e0 	adrp	x0, 47e000 <_GLOBAL_OFFSET_TABLE_+0xd8>
  4020ac:	b900f3b9 	str	w25, [x29, #240]
  4020b0:	f90087bf 	str	xzr, [x29, #264]
  4020b4:	f9405416 	ldr	x22, [x0, #168]
  4020b8:	2a1903e0 	mov	w0, w25
  4020bc:	f90077b6 	str	x22, [x29, #232]
  4020c0:	f90093b8 	str	x24, [x29, #288]
  4020c4:	94008c45 	bl	4251d8 <__current_locale_name>
  4020c8:	f9003fa0 	str	x0, [x29, #120]
  4020cc:	f9007fa0 	str	x0, [x29, #248]
  4020d0:	f942c260 	ldr	x0, [x19, #1408]
  4020d4:	b5ffe9c0 	cbnz	x0, 401e0c <__dcigettext+0x11c>
  4020d8:	17ffff51 	b	401e1c <__dcigettext+0x12c>
  4020dc:	91000694 	add	x20, x20, #0x1
  4020e0:	17ffffb6 	b	401fb8 <__dcigettext+0x2c8>
  4020e4:	aa1503e1 	mov	x1, x21
  4020e8:	38001420 	strb	w0, [x1], #1
  4020ec:	38401e80 	ldrb	w0, [x20, #1]!
  4020f0:	7100e81f 	cmp	w0, #0x3a
  4020f4:	7a401804 	ccmp	w0, #0x0, #0x4, ne  // ne = any
  4020f8:	54ffff81 	b.ne	4020e8 <__dcigettext+0x3f8>  // b.any
  4020fc:	f9404ba0 	ldr	x0, [x29, #144]
  402100:	3900003f 	strb	wzr, [x1]
  402104:	b9400000 	ldr	w0, [x0]
  402108:	34fff640 	cbz	w0, 401fd0 <__dcigettext+0x2e0>
  40210c:	528005e1 	mov	w1, #0x2f                  	// #47
  402110:	aa1503e0 	mov	x0, x21
  402114:	940049cf 	bl	414850 <strchr>
  402118:	b5fff500 	cbnz	x0, 401fb8 <__dcigettext+0x2c8>
  40211c:	17ffffad 	b	401fd0 <__dcigettext+0x2e0>
  402120:	f9401380 	ldr	x0, [x28, #32]
  402124:	b4fff4a0 	cbz	x0, 401fb8 <__dcigettext+0x2c8>
  402128:	d2800005 	mov	x5, #0x0                   	// #0
  40212c:	f90033b4 	str	x20, [x29, #96]
  402130:	aa0503f4 	mov	x20, x5
  402134:	14000005 	b	402148 <__dcigettext+0x458>
  402138:	91000694 	add	x20, x20, #0x1
  40213c:	8b140f80 	add	x0, x28, x20, lsl #3
  402140:	f9401000 	ldr	x0, [x0, #32]
  402144:	b4000b20 	cbz	x0, 4022a8 <__dcigettext+0x5b8>
  402148:	910383a4 	add	x4, x29, #0xe0
  40214c:	52800023 	mov	w3, #0x1                   	// #1
  402150:	aa1803e2 	mov	x2, x24
  402154:	aa1303e1 	mov	x1, x19
  402158:	97fffc78 	bl	401338 <_nl_find_msg>
  40215c:	b100041f 	cmn	x0, #0x1
  402160:	54fff680 	b.eq	402030 <__dcigettext+0x340>  // b.none
  402164:	b4fffea0 	cbz	x0, 402138 <__dcigettext+0x448>
  402168:	aa0003e4 	mov	x4, x0
  40216c:	2a1403e0 	mov	w0, w20
  402170:	8b20cf80 	add	x0, x28, w0, sxtw #3
  402174:	f940101c 	ldr	x28, [x0, #32]
  402178:	f9406fa0 	ldr	x0, [x29, #216]
  40217c:	f90067a4 	str	x4, [x29, #200]
  402180:	94004518 	bl	4135e0 <__free>
  402184:	f9404fa0 	ldr	x0, [x29, #152]
  402188:	f94067a4 	ldr	x4, [x29, #200]
  40218c:	b4000a00 	cbz	x0, 4022cc <__dcigettext+0x5dc>
  402190:	f9404fa0 	ldr	x0, [x29, #152]
  402194:	f0000be2 	adrp	x2, 581000 <memory_slot_ptr+0x588>
  402198:	f94073a1 	ldr	x1, [x29, #224]
  40219c:	b94eb842 	ldr	w2, [x2, #3768]
  4021a0:	f9400000 	ldr	x0, [x0]
  4021a4:	b9001802 	str	w2, [x0, #24]
  4021a8:	a902101c 	stp	x28, x4, [x0, #32]
  4021ac:	f9001801 	str	x1, [x0, #48]
  4021b0:	a94803a1 	ldp	x1, x0, [x29, #128]
  4021b4:	b940bba2 	ldr	w2, [x29, #184]
  4021b8:	b8216802 	str	w2, [x0, x1]
  4021bc:	b940bfa0 	ldr	w0, [x29, #188]
  4021c0:	35000780 	cbnz	w0, 4022b0 <__dcigettext+0x5c0>
  4021c4:	b0000260 	adrp	x0, 44f000 <free_slotinfo+0x8>
  4021c8:	f942c400 	ldr	x0, [x0, #1416]
  4021cc:	b4ffdcc0 	cbz	x0, 401d64 <__dcigettext+0x74>
  4021d0:	f94057a0 	ldr	x0, [x29, #168]
  4021d4:	f90067a4 	str	x4, [x29, #200]
  4021d8:	913b8000 	add	x0, x0, #0xee0
  4021dc:	9100e000 	add	x0, x0, #0x38
  4021e0:	d503201f 	nop
  4021e4:	d00003e0 	adrp	x0, 480000 <locale_alias_path.10139>
  4021e8:	91162000 	add	x0, x0, #0x588
  4021ec:	d503201f 	nop
  4021f0:	f94067a4 	ldr	x4, [x29, #200]
  4021f4:	17fffedc 	b	401d64 <__dcigettext+0x74>
  4021f8:	b000027a 	adrp	x26, 44f000 <free_slotinfo+0x8>
  4021fc:	9117a35a 	add	x26, x26, #0x5e8
  402200:	17ffff3c 	b	401ef0 <__dcigettext+0x200>
  402204:	b000027a 	adrp	x26, 44f000 <free_slotinfo+0x8>
  402208:	d2800013 	mov	x19, #0x0                   	// #0
  40220c:	9117a35a 	add	x26, x26, #0x5e8
  402210:	17ffff38 	b	401ef0 <__dcigettext+0x200>
  402214:	b940bfa1 	ldr	w1, [x29, #188]
  402218:	f9401404 	ldr	x4, [x0, #40]
  40221c:	35000361 	cbnz	w1, 402288 <__dcigettext+0x598>
  402220:	b0000260 	adrp	x0, 44f000 <free_slotinfo+0x8>
  402224:	f942c400 	ldr	x0, [x0, #1416]
  402228:	b4000140 	cbz	x0, 402250 <__dcigettext+0x560>
  40222c:	f94057a0 	ldr	x0, [x29, #168]
  402230:	f90067a4 	str	x4, [x29, #200]
  402234:	913b8000 	add	x0, x0, #0xee0
  402238:	9100e000 	add	x0, x0, #0x38
  40223c:	d503201f 	nop
  402240:	d00003e0 	adrp	x0, 480000 <locale_alias_path.10139>
  402244:	91162000 	add	x0, x0, #0x588
  402248:	d503201f 	nop
  40224c:	f94067a4 	ldr	x4, [x29, #200]
  402250:	a94803a1 	ldp	x1, x0, [x29, #128]
  402254:	b940bba2 	ldr	w2, [x29, #184]
  402258:	b8216802 	str	w2, [x0, x1]
  40225c:	17fffec2 	b	401d64 <__dcigettext+0x74>
  402260:	b0000260 	adrp	x0, 44f000 <free_slotinfo+0x8>
  402264:	91174000 	add	x0, x0, #0x5d0
  402268:	94000eb4 	bl	405d38 <getenv>
  40226c:	b4ffe5c0 	cbz	x0, 401f24 <__dcigettext+0x234>
  402270:	39400001 	ldrb	w1, [x0]
  402274:	7100003f 	cmp	w1, #0x0
  402278:	9a800294 	csel	x20, x20, x0, eq  // eq = none
  40227c:	17ffff2a 	b	401f24 <__dcigettext+0x234>
  402280:	d2800004 	mov	x4, #0x0                   	// #0
  402284:	17fffeb8 	b	401d64 <__dcigettext+0x74>
  402288:	f9401005 	ldr	x5, [x0, #32]
  40228c:	aa0403e2 	mov	x2, x4
  402290:	f9401803 	ldr	x3, [x0, #48]
  402294:	f9405ba1 	ldr	x1, [x29, #176]
  402298:	f94008a0 	ldr	x0, [x5, #16]
  40229c:	97fffc07 	bl	4012b8 <plural_lookup.isra.2>
  4022a0:	aa0003e4 	mov	x4, x0
  4022a4:	17ffffdf 	b	402220 <__dcigettext+0x530>
  4022a8:	f94033b4 	ldr	x20, [x29, #96]
  4022ac:	17ffff43 	b	401fb8 <__dcigettext+0x2c8>
  4022b0:	f9400b80 	ldr	x0, [x28, #16]
  4022b4:	aa0403e2 	mov	x2, x4
  4022b8:	f9405ba1 	ldr	x1, [x29, #176]
  4022bc:	f94073a3 	ldr	x3, [x29, #224]
  4022c0:	97fffbfe 	bl	4012b8 <plural_lookup.isra.2>
  4022c4:	aa0003e4 	mov	x4, x0
  4022c8:	17ffffbf 	b	4021c4 <__dcigettext+0x4d4>
  4022cc:	aa1803e0 	mov	x0, x24
  4022d0:	94004abc 	bl	414dc0 <__strlen>
  4022d4:	f9403fba 	ldr	x26, [x29, #120]
  4022d8:	91000413 	add	x19, x0, #0x1
  4022dc:	aa1a03e0 	mov	x0, x26
  4022e0:	94004ab8 	bl	414dc0 <__strlen>
  4022e4:	f9403ba1 	ldr	x1, [x29, #112]
  4022e8:	8b130000 	add	x0, x0, x19
  4022ec:	8b010000 	add	x0, x0, x1
  4022f0:	94004324 	bl	412f80 <__libc_malloc>
  4022f4:	aa0003f4 	mov	x20, x0
  4022f8:	f94067a4 	ldr	x4, [x29, #200]
  4022fc:	b4fff5a0 	cbz	x0, 4021b0 <__dcigettext+0x4c0>
  402300:	f94037a0 	ldr	x0, [x29, #104]
  402304:	aa1303e2 	mov	x2, x19
  402308:	aa1803e1 	mov	x1, x24
  40230c:	91000413 	add	x19, x0, #0x1
  402310:	9100e280 	add	x0, x20, #0x38
  402314:	94004e43 	bl	415c20 <__mempcpy>
  402318:	aa0003f5 	mov	x21, x0
  40231c:	aa1303e2 	mov	x2, x19
  402320:	aa1603e1 	mov	x1, x22
  402324:	8b130013 	add	x19, x0, x19
  402328:	97fff7ca 	bl	400250 <.plt+0x10>
  40232c:	aa1a03e1 	mov	x1, x26
  402330:	aa1303e0 	mov	x0, x19
  402334:	940049c3 	bl	414a40 <strcpy>
  402338:	f9000295 	str	x21, [x20]
  40233c:	b0000260 	adrp	x0, 44f000 <free_slotinfo+0x8>
  402340:	f0000be2 	adrp	x2, 581000 <memory_slot_ptr+0x588>
  402344:	f94067a4 	ldr	x4, [x29, #200]
  402348:	f942c800 	ldr	x0, [x0, #1424]
  40234c:	b94eb842 	ldr	w2, [x2, #3768]
  402350:	f94073a1 	ldr	x1, [x29, #224]
  402354:	b9000a99 	str	w25, [x20, #8]
  402358:	f9000a93 	str	x19, [x20, #16]
  40235c:	b9001a82 	str	w2, [x20, #24]
  402360:	a902129c 	stp	x28, x4, [x20, #32]
  402364:	f9001a81 	str	x1, [x20, #48]
  402368:	b40000c0 	cbz	x0, 402380 <__dcigettext+0x690>
  40236c:	f94057a0 	ldr	x0, [x29, #168]
  402370:	913b8000 	add	x0, x0, #0xee0
  402374:	9101c000 	add	x0, x0, #0x70
  402378:	d503201f 	nop
  40237c:	f94067a4 	ldr	x4, [x29, #200]
  402380:	f94057a0 	ldr	x0, [x29, #168]
  402384:	f90067a4 	str	x4, [x29, #200]
  402388:	913b8015 	add	x21, x0, #0xee0
  40238c:	f0ffffe0 	adrp	x0, 401000 <__assert_fail+0x48>
  402390:	aa1503e1 	mov	x1, x21
  402394:	9108e002 	add	x2, x0, #0x238
  402398:	aa1403e0 	mov	x0, x20
  40239c:	94005a2b 	bl	418c48 <__tsearch>
  4023a0:	aa0003f3 	mov	x19, x0
  4023a4:	b0000260 	adrp	x0, 44f000 <free_slotinfo+0x8>
  4023a8:	f94067a4 	ldr	x4, [x29, #200]
  4023ac:	f942c400 	ldr	x0, [x0, #1416]
  4023b0:	b4000080 	cbz	x0, 4023c0 <__dcigettext+0x6d0>
  4023b4:	9101c2a0 	add	x0, x21, #0x70
  4023b8:	d503201f 	nop
  4023bc:	f94067a4 	ldr	x4, [x29, #200]
  4023c0:	b4000093 	cbz	x19, 4023d0 <__dcigettext+0x6e0>
  4023c4:	f9400260 	ldr	x0, [x19]
  4023c8:	eb14001f 	cmp	x0, x20
  4023cc:	54ffef20 	b.eq	4021b0 <__dcigettext+0x4c0>  // b.none
  4023d0:	f90067a4 	str	x4, [x29, #200]
  4023d4:	aa1403e0 	mov	x0, x20
  4023d8:	94004482 	bl	4135e0 <__free>
  4023dc:	f94067a4 	ldr	x4, [x29, #200]
  4023e0:	17ffff74 	b	4021b0 <__dcigettext+0x4c0>
  4023e4:	94005ee9 	bl	419f88 <__stack_chk_fail>

00000000004023e8 <_nl_find_domain>:
  4023e8:	d102c3ff 	sub	sp, sp, #0xb0
  4023ec:	b0000265 	adrp	x5, 44f000 <free_slotinfo+0x8>
  4023f0:	a9027bfd 	stp	x29, x30, [sp, #32]
  4023f4:	910083fd 	add	x29, sp, #0x20
  4023f8:	a90353f3 	stp	x19, x20, [sp, #48]
  4023fc:	aa0003f4 	mov	x20, x0
  402400:	a9045bf5 	stp	x21, x22, [sp, #64]
  402404:	f00003d5 	adrp	x21, 47d000 <__FRAME_END__+0xf8fc>
  402408:	f94308a0 	ldr	x0, [x5, #1552]
  40240c:	912862a4 	add	x4, x21, #0xa18
  402410:	f9400085 	ldr	x5, [x4]
  402414:	f90047a5 	str	x5, [x29, #136]
  402418:	d2800005 	mov	x5, #0x0                   	// #0
  40241c:	a90563f7 	stp	x23, x24, [sp, #80]
  402420:	a9066bf9 	stp	x25, x26, [sp, #96]
  402424:	aa0103f8 	mov	x24, x1
  402428:	f9003ffc 	str	x28, [sp, #120]
  40242c:	aa0303f7 	mov	x23, x3
  402430:	b00003f6 	adrp	x22, 47f000 <main_arena+0x868>
  402434:	aa0203fc 	mov	x28, x2
  402438:	b4000060 	cbz	x0, 402444 <_nl_find_domain+0x5c>
  40243c:	913e22c0 	add	x0, x22, #0xf88
  402440:	d503201f 	nop
  402444:	aa1403e0 	mov	x0, x20
  402448:	94004a5e 	bl	414dc0 <__strlen>
  40244c:	a90073ff 	stp	xzr, x28, [sp]
  402450:	b0000279 	adrp	x25, 44f000 <free_slotinfo+0x8>
  402454:	b90013ff 	str	wzr, [sp, #16]
  402458:	913e22da 	add	x26, x22, #0xf88
  40245c:	91000402 	add	x2, x0, #0x1
  402460:	d2800007 	mov	x7, #0x0                   	// #0
  402464:	d2800006 	mov	x6, #0x0                   	// #0
  402468:	d2800005 	mov	x5, #0x0                   	// #0
  40246c:	aa1803e4 	mov	x4, x24
  402470:	52800003 	mov	w3, #0x0                   	// #0
  402474:	aa1403e1 	mov	x1, x20
  402478:	9100e340 	add	x0, x26, #0x38
  40247c:	940006a9 	bl	403f20 <_nl_make_l10nflist>
  402480:	aa0003f3 	mov	x19, x0
  402484:	f9430f20 	ldr	x0, [x25, #1560]
  402488:	b4000060 	cbz	x0, 402494 <_nl_find_domain+0xac>
  40248c:	aa1a03e0 	mov	x0, x26
  402490:	d503201f 	nop
  402494:	b40004f3 	cbz	x19, 402530 <_nl_find_domain+0x148>
  402498:	b9400a60 	ldr	w0, [x19, #8]
  40249c:	7100001f 	cmp	w0, #0x0
  4024a0:	5400040d 	b.le	402520 <_nl_find_domain+0x138>
  4024a4:	f9400a60 	ldr	x0, [x19, #16]
  4024a8:	b40001e0 	cbz	x0, 4024e4 <_nl_find_domain+0xfc>
  4024ac:	912862b5 	add	x21, x21, #0xa18
  4024b0:	aa1303e0 	mov	x0, x19
  4024b4:	f94047a2 	ldr	x2, [x29, #136]
  4024b8:	f94002a1 	ldr	x1, [x21]
  4024bc:	ca010041 	eor	x1, x2, x1
  4024c0:	b5000de1 	cbnz	x1, 40267c <_nl_find_domain+0x294>
  4024c4:	a9427bfd 	ldp	x29, x30, [sp, #32]
  4024c8:	a94353f3 	ldp	x19, x20, [sp, #48]
  4024cc:	a9445bf5 	ldp	x21, x22, [sp, #64]
  4024d0:	a94563f7 	ldp	x23, x24, [sp, #80]
  4024d4:	a9466bf9 	ldp	x25, x26, [sp, #96]
  4024d8:	f9403ffc 	ldr	x28, [sp, #120]
  4024dc:	9102c3ff 	add	sp, sp, #0xb0
  4024e0:	d65f03c0 	ret
  4024e4:	f9401260 	ldr	x0, [x19, #32]
  4024e8:	b4fffe20 	cbz	x0, 4024ac <_nl_find_domain+0xc4>
  4024ec:	91008274 	add	x20, x19, #0x20
  4024f0:	14000006 	b	402508 <_nl_find_domain+0x120>
  4024f4:	f9400280 	ldr	x0, [x20]
  4024f8:	f9400800 	ldr	x0, [x0, #16]
  4024fc:	b5fffd80 	cbnz	x0, 4024ac <_nl_find_domain+0xc4>
  402500:	f8408e80 	ldr	x0, [x20, #8]!
  402504:	b4fffd40 	cbz	x0, 4024ac <_nl_find_domain+0xc4>
  402508:	b9400801 	ldr	w1, [x0, #8]
  40250c:	7100003f 	cmp	w1, #0x0
  402510:	54ffff2c 	b.gt	4024f4 <_nl_find_domain+0x10c>
  402514:	aa1703e1 	mov	x1, x23
  402518:	9400005c 	bl	402688 <_nl_load_domain>
  40251c:	17fffff6 	b	4024f4 <_nl_find_domain+0x10c>
  402520:	aa1703e1 	mov	x1, x23
  402524:	aa1303e0 	mov	x0, x19
  402528:	94000058 	bl	402688 <_nl_load_domain>
  40252c:	17ffffde 	b	4024a4 <_nl_find_domain+0xbc>
  402530:	f9002bbb 	str	x27, [x29, #80]
  402534:	aa1803e0 	mov	x0, x24
  402538:	940005fe 	bl	403d30 <_nl_expand_alias>
  40253c:	aa0003fb 	mov	x27, x0
  402540:	b4000140 	cbz	x0, 402568 <_nl_find_domain+0x180>
  402544:	94004a1f 	bl	414dc0 <__strlen>
  402548:	9100041a 	add	x26, x0, #0x1
  40254c:	aa1a03e0 	mov	x0, x26
  402550:	9400428c 	bl	412f80 <__libc_malloc>
  402554:	aa0003f8 	mov	x24, x0
  402558:	b4000600 	cbz	x0, 402618 <_nl_find_domain+0x230>
  40255c:	aa1a03e2 	mov	x2, x26
  402560:	aa1b03e1 	mov	x1, x27
  402564:	97fff73b 	bl	400250 <.plt+0x10>
  402568:	910203a5 	add	x5, x29, #0x80
  40256c:	9101e3a4 	add	x4, x29, #0x78
  402570:	9101c3a3 	add	x3, x29, #0x70
  402574:	9101a3a2 	add	x2, x29, #0x68
  402578:	910183a1 	add	x1, x29, #0x60
  40257c:	aa1803e0 	mov	x0, x24
  402580:	9400080e 	bl	4045b8 <_nl_explode_name>
  402584:	2a0003fa 	mov	w26, w0
  402588:	3100041f 	cmn	w0, #0x1
  40258c:	54000460 	b.eq	402618 <_nl_find_domain+0x230>  // b.none
  402590:	b0000260 	adrp	x0, 44f000 <free_slotinfo+0x8>
  402594:	f9431000 	ldr	x0, [x0, #1568]
  402598:	b4000060 	cbz	x0, 4025a4 <_nl_find_domain+0x1bc>
  40259c:	913e22c0 	add	x0, x22, #0xf88
  4025a0:	d503201f 	nop
  4025a4:	aa1403e0 	mov	x0, x20
  4025a8:	94004a06 	bl	414dc0 <__strlen>
  4025ac:	a9460ba4 	ldp	x4, x2, [x29, #96]
  4025b0:	52800021 	mov	w1, #0x1                   	// #1
  4025b4:	a9471ba5 	ldp	x5, x6, [x29, #112]
  4025b8:	a90073e2 	stp	x2, x28, [sp]
  4025bc:	f94043a7 	ldr	x7, [x29, #128]
  4025c0:	913e22d6 	add	x22, x22, #0xf88
  4025c4:	b90013e1 	str	w1, [sp, #16]
  4025c8:	91000402 	add	x2, x0, #0x1
  4025cc:	2a1a03e3 	mov	w3, w26
  4025d0:	aa1403e1 	mov	x1, x20
  4025d4:	9100e2c0 	add	x0, x22, #0x38
  4025d8:	94000652 	bl	403f20 <_nl_make_l10nflist>
  4025dc:	aa0003f3 	mov	x19, x0
  4025e0:	f9430f20 	ldr	x0, [x25, #1560]
  4025e4:	b4000060 	cbz	x0, 4025f0 <_nl_find_domain+0x208>
  4025e8:	aa1603e0 	mov	x0, x22
  4025ec:	d503201f 	nop
  4025f0:	b4000133 	cbz	x19, 402614 <_nl_find_domain+0x22c>
  4025f4:	b9400a60 	ldr	w0, [x19, #8]
  4025f8:	7100001f 	cmp	w0, #0x0
  4025fc:	5400038d 	b.le	40266c <_nl_find_domain+0x284>
  402600:	f9400a60 	ldr	x0, [x19, #16]
  402604:	b4000160 	cbz	x0, 402630 <_nl_find_domain+0x248>
  402608:	b400007b 	cbz	x27, 402614 <_nl_find_domain+0x22c>
  40260c:	aa1803e0 	mov	x0, x24
  402610:	940043f4 	bl	4135e0 <__free>
  402614:	3700007a 	tbnz	w26, #0, 402620 <_nl_find_domain+0x238>
  402618:	f9402bbb 	ldr	x27, [x29, #80]
  40261c:	17ffffa4 	b	4024ac <_nl_find_domain+0xc4>
  402620:	f94043a0 	ldr	x0, [x29, #128]
  402624:	940043ef 	bl	4135e0 <__free>
  402628:	f9402bbb 	ldr	x27, [x29, #80]
  40262c:	17ffffa0 	b	4024ac <_nl_find_domain+0xc4>
  402630:	f9401260 	ldr	x0, [x19, #32]
  402634:	b4fffea0 	cbz	x0, 402608 <_nl_find_domain+0x220>
  402638:	91008274 	add	x20, x19, #0x20
  40263c:	14000006 	b	402654 <_nl_find_domain+0x26c>
  402640:	f9400280 	ldr	x0, [x20]
  402644:	f9400800 	ldr	x0, [x0, #16]
  402648:	b5fffe00 	cbnz	x0, 402608 <_nl_find_domain+0x220>
  40264c:	f8408e80 	ldr	x0, [x20, #8]!
  402650:	b4fffdc0 	cbz	x0, 402608 <_nl_find_domain+0x220>
  402654:	b9400801 	ldr	w1, [x0, #8]
  402658:	7100003f 	cmp	w1, #0x0
  40265c:	54ffff2c 	b.gt	402640 <_nl_find_domain+0x258>
  402660:	aa1703e1 	mov	x1, x23
  402664:	94000009 	bl	402688 <_nl_load_domain>
  402668:	17fffff6 	b	402640 <_nl_find_domain+0x258>
  40266c:	aa1703e1 	mov	x1, x23
  402670:	aa1303e0 	mov	x0, x19
  402674:	94000005 	bl	402688 <_nl_load_domain>
  402678:	17ffffe2 	b	402600 <_nl_find_domain+0x218>
  40267c:	f9002bbb 	str	x27, [x29, #80]
  402680:	94005e42 	bl	419f88 <__stack_chk_fail>
  402684:	00000000 	.inst	0x00000000 ; undefined

0000000000402688 <_nl_load_domain>:
  402688:	a9a77bfd 	stp	x29, x30, [sp, #-400]!
  40268c:	910003fd 	mov	x29, sp
  402690:	f9002bfb 	str	x27, [sp, #80]
  402694:	b00003fb 	adrp	x27, 47f000 <main_arena+0x868>
  402698:	913f2362 	add	x2, x27, #0xfc8
  40269c:	f90023f9 	str	x25, [sp, #64]
  4026a0:	f00003d9 	adrp	x25, 47d000 <__FRAME_END__+0xf8fc>
  4026a4:	91286323 	add	x3, x25, #0xa18
  4026a8:	f9400064 	ldr	x4, [x3]
  4026ac:	f900c7a4 	str	x4, [x29, #392]
  4026b0:	d2800004 	mov	x4, #0x0                   	// #0
  4026b4:	a90153f3 	stp	x19, x20, [sp, #16]
  4026b8:	f90013f5 	str	x21, [sp, #32]
  4026bc:	d53bd055 	mrs	x21, tpidr_el0
  4026c0:	f9001bf7 	str	x23, [sp, #48]
  4026c4:	d11bc2b4 	sub	x20, x21, #0x6f0
  4026c8:	f9400443 	ldr	x3, [x2, #8]
  4026cc:	aa0103f3 	mov	x19, x1
  4026d0:	aa0003f7 	mov	x23, x0
  4026d4:	eb14007f 	cmp	x3, x20
  4026d8:	54000140 	b.eq	402700 <_nl_load_domain+0x78>  // b.none
  4026dc:	52800020 	mov	w0, #0x1                   	// #1
  4026e0:	885ffc41 	ldaxr	w1, [x2]
  4026e4:	35000061 	cbnz	w1, 4026f0 <_nl_load_domain+0x68>
  4026e8:	88037c40 	stxr	w3, w0, [x2]
  4026ec:	35ffffa3 	cbnz	w3, 4026e0 <_nl_load_domain+0x58>
  4026f0:	7100003f 	cmp	w1, #0x0
  4026f4:	54002701 	b.ne	402bd4 <_nl_load_domain+0x54c>  // b.any
  4026f8:	913f2360 	add	x0, x27, #0xfc8
  4026fc:	f9000414 	str	x20, [x0, #8]
  402700:	913f2374 	add	x20, x27, #0xfc8
  402704:	b9400ae0 	ldr	w0, [x23, #8]
  402708:	b9400681 	ldr	w1, [x20, #4]
  40270c:	11000421 	add	w1, w1, #0x1
  402710:	b9000681 	str	w1, [x20, #4]
  402714:	35000200 	cbnz	w0, 402754 <_nl_load_domain+0xcc>
  402718:	f94002e0 	ldr	x0, [x23]
  40271c:	12800002 	mov	w2, #0xffffffff            	// #-1
  402720:	b9000ae2 	str	w2, [x23, #8]
  402724:	f9000aff 	str	xzr, [x23, #16]
  402728:	b4000120 	cbz	x0, 40274c <_nl_load_domain+0xc4>
  40272c:	f90017b6 	str	x22, [x29, #40]
  402730:	52800001 	mov	w1, #0x0                   	// #0
  402734:	940054c7 	bl	417a50 <__open64_nocancel>
  402738:	2a0003f6 	mov	w22, w0
  40273c:	3100041f 	cmn	w0, #0x1
  402740:	54000441 	b.ne	4027c8 <_nl_load_domain+0x140>  // b.any
  402744:	b9400681 	ldr	w1, [x20, #4]
  402748:	f94017b6 	ldr	x22, [x29, #40]
  40274c:	52800020 	mov	w0, #0x1                   	// #1
  402750:	b9000ae0 	str	w0, [x23, #8]
  402754:	913f237b 	add	x27, x27, #0xfc8
  402758:	51000421 	sub	w1, w1, #0x1
  40275c:	b9000761 	str	w1, [x27, #4]
  402760:	340001a1 	cbz	w1, 402794 <_nl_load_domain+0x10c>
  402764:	91286327 	add	x7, x25, #0xa18
  402768:	f940c7a1 	ldr	x1, [x29, #392]
  40276c:	f94000e0 	ldr	x0, [x7]
  402770:	ca000020 	eor	x0, x1, x0
  402774:	b50038c0 	cbnz	x0, 402e8c <_nl_load_domain+0x804>
  402778:	a94153f3 	ldp	x19, x20, [sp, #16]
  40277c:	f94013f5 	ldr	x21, [sp, #32]
  402780:	f9401bf7 	ldr	x23, [sp, #48]
  402784:	f94023f9 	ldr	x25, [sp, #64]
  402788:	f9402bfb 	ldr	x27, [sp, #80]
  40278c:	a8d97bfd 	ldp	x29, x30, [sp], #400
  402790:	d65f03c0 	ret
  402794:	f900077f 	str	xzr, [x27, #8]
  402798:	885f7f60 	ldxr	w0, [x27]
  40279c:	8802ff61 	stlxr	w2, w1, [x27]
  4027a0:	35ffffc2 	cbnz	w2, 402798 <_nl_load_domain+0x110>
  4027a4:	7100041f 	cmp	w0, #0x1
  4027a8:	54fffded 	b.le	402764 <_nl_load_domain+0xdc>
  4027ac:	aa1b03e0 	mov	x0, x27
  4027b0:	d2801021 	mov	x1, #0x81                  	// #129
  4027b4:	d2800022 	mov	x2, #0x1                   	// #1
  4027b8:	d2800003 	mov	x3, #0x0                   	// #0
  4027bc:	d2800c48 	mov	x8, #0x62                  	// #98
  4027c0:	d4000001 	svc	#0x0
  4027c4:	17ffffe8 	b	402764 <_nl_load_domain+0xdc>
  4027c8:	2a0003e1 	mov	w1, w0
  4027cc:	910423a2 	add	x2, x29, #0x108
  4027d0:	52800000 	mov	w0, #0x0                   	// #0
  4027d4:	9400543d 	bl	4178c8 <__fxstat>
  4027d8:	b900efa0 	str	w0, [x29, #236]
  4027dc:	35001f00 	cbnz	w0, 402bbc <_nl_load_domain+0x534>
  4027e0:	f90027ba 	str	x26, [x29, #72]
  4027e4:	f9409fba 	ldr	x26, [x29, #312]
  4027e8:	f100bf5f 	cmp	x26, #0x2f
  4027ec:	54002a49 	b.ls	402d34 <_nl_load_domain+0x6ac>  // b.plast
  4027f0:	f9001fb8 	str	x24, [x29, #56]
  4027f4:	d2800005 	mov	x5, #0x0                   	// #0
  4027f8:	f9002fbc 	str	x28, [x29, #88]
  4027fc:	2a1603e4 	mov	w4, w22
  402800:	52800043 	mov	w3, #0x2                   	// #2
  402804:	52800022 	mov	w2, #0x1                   	// #1
  402808:	aa1a03e1 	mov	x1, x26
  40280c:	d2800000 	mov	x0, #0x0                   	// #0
  402810:	94005832 	bl	4188d8 <__mmap64>
  402814:	aa0003fc 	mov	x28, x0
  402818:	b100041f 	cmn	x0, #0x1
  40281c:	540023e0 	b.eq	402c98 <_nl_load_domain+0x610>  // b.none
  402820:	2a1603e0 	mov	w0, w22
  402824:	9400560b 	bl	418050 <__close_nocancel>
  402828:	b9400398 	ldr	w24, [x28]
  40282c:	52825bc1 	mov	w1, #0x12de                	// #4830
  402830:	72b2a081 	movk	w1, #0x9504, lsl #16
  402834:	528092a0 	mov	w0, #0x495                 	// #1173
  402838:	6b01031f 	cmp	w24, w1
  40283c:	72bbc240 	movk	w0, #0xde12, lsl #16
  402840:	1a9f07f5 	cset	w21, ne  // ne = any
  402844:	710002bf 	cmp	w21, #0x0
  402848:	7a401304 	ccmp	w24, w0, #0x4, ne  // ne = any
  40284c:	54002ca1 	b.ne	402de0 <_nl_load_domain+0x758>  // b.any
  402850:	52800020 	mov	w0, #0x1                   	// #1
  402854:	b900efa0 	str	w0, [x29, #236]
  402858:	d2801900 	mov	x0, #0xc8                  	// #200
  40285c:	940041c9 	bl	412f80 <__libc_malloc>
  402860:	aa0003f6 	mov	x22, x0
  402864:	b40018c0 	cbz	x0, 402b7c <_nl_load_domain+0x4f4>
  402868:	b940efa0 	ldr	w0, [x29, #236]
  40286c:	52825bc1 	mov	w1, #0x12de                	// #4830
  402870:	f90002dc 	str	x28, [x22]
  402874:	72b2a081 	movk	w1, #0x9504, lsl #16
  402878:	b9000ac0 	str	w0, [x22, #8]
  40287c:	6b01031f 	cmp	w24, w1
  402880:	b9400780 	ldr	w0, [x28, #4]
  402884:	f9000ada 	str	x26, [x22, #16]
  402888:	b9001ad5 	str	w21, [x22, #24]
  40288c:	f90012df 	str	xzr, [x22, #32]
  402890:	f9000af6 	str	x22, [x23, #16]
  402894:	54001a61 	b.ne	402be0 <_nl_load_domain+0x558>  // b.any
  402898:	13107c01 	asr	w1, w0, #16
  40289c:	7100043f 	cmp	w1, #0x1
  4028a0:	54001f88 	b.hi	402c90 <_nl_load_domain+0x608>  // b.pmore
  4028a4:	29425381 	ldp	w1, w20, [x28, #16]
  4028a8:	29410f84 	ldp	w4, w3, [x28, #8]
  4028ac:	8b010381 	add	x1, x28, x1
  4028b0:	b9002ac4 	str	w4, [x22, #40]
  4028b4:	71000a9f 	cmp	w20, #0x2
  4028b8:	8b030383 	add	x3, x28, x3
  4028bc:	a90306c3 	stp	x3, x1, [x22, #48]
  4028c0:	b9005ad4 	str	w20, [x22, #88]
  4028c4:	54001b69 	b.ls	402c30 <_nl_load_domain+0x5a8>  // b.plast
  4028c8:	b9401b81 	ldr	w1, [x28, #24]
  4028cc:	8b010381 	add	x1, x28, x1
  4028d0:	f90032c1 	str	x1, [x22, #96]
  4028d4:	b9006ad5 	str	w21, [x22, #104]
  4028d8:	12003c00 	and	w0, w0, #0xffff
  4028dc:	34001b20 	cbz	w0, 402c40 <_nl_load_domain+0x5b8>
  4028e0:	b4001c01 	cbz	x1, 402c60 <_nl_load_domain+0x5d8>
  4028e4:	52825bc0 	mov	w0, #0x12de                	// #4830
  4028e8:	72b2a080 	movk	w0, #0x9504, lsl #16
  4028ec:	6b00031f 	cmp	w24, w0
  4028f0:	b9402780 	ldr	w0, [x28, #36]
  4028f4:	54002660 	b.eq	402dc0 <_nl_load_domain+0x738>  // b.none
  4028f8:	5ac00800 	rev	w0, w0
  4028fc:	b900eba0 	str	w0, [x29, #232]
  402900:	34001a00 	cbz	w0, 402c40 <_nl_load_domain+0x5b8>
  402904:	2943d780 	ldp	w0, w21, [x28, #28]
  402908:	5ac00ab5 	rev	w21, w21
  40290c:	5ac00800 	rev	w0, w0
  402910:	b900dba0 	str	w0, [x29, #216]
  402914:	b940dba0 	ldr	w0, [x29, #216]
  402918:	d2800101 	mov	x1, #0x8                   	// #8
  40291c:	9400448f 	bl	413b58 <__calloc>
  402920:	f90073a0 	str	x0, [x29, #224]
  402924:	b40019e0 	cbz	x0, 402c60 <_nl_load_domain+0x5d8>
  402928:	b940dba0 	ldr	w0, [x29, #216]
  40292c:	34000760 	cbz	w0, 402a18 <_nl_load_domain+0x390>
  402930:	51000404 	sub	w4, w0, #0x1
  402934:	8b150395 	add	x21, x28, x21
  402938:	910022a0 	add	x0, x21, #0x8
  40293c:	f94073a3 	ldr	x3, [x29, #224]
  402940:	8b244c04 	add	x4, x0, w4, uxtw #3
  402944:	b0000260 	adrp	x0, 44f000 <free_slotinfo+0x8>
  402948:	911a2009 	add	x9, x0, #0x688
  40294c:	b0000260 	adrp	x0, 44f000 <free_slotinfo+0x8>
  402950:	911a4008 	add	x8, x0, #0x690
  402954:	d0000320 	adrp	x0, 468000 <__sys_nerr_internal+0x48>
  402958:	91150007 	add	x7, x0, #0x540
  40295c:	b0000260 	adrp	x0, 44f000 <free_slotinfo+0x8>
  402960:	b000026b 	adrp	x11, 44f000 <free_slotinfo+0x8>
  402964:	b0000270 	adrp	x16, 44f000 <free_slotinfo+0x8>
  402968:	b000026f 	adrp	x15, 44f000 <free_slotinfo+0x8>
  40296c:	b000026e 	adrp	x14, 44f000 <free_slotinfo+0x8>
  402970:	b000026d 	adrp	x13, 44f000 <free_slotinfo+0x8>
  402974:	91190006 	add	x6, x0, #0x640
  402978:	b000027e 	adrp	x30, 44f000 <free_slotinfo+0x8>
  40297c:	b0000260 	adrp	x0, 44f000 <free_slotinfo+0x8>
  402980:	52825bca 	mov	w10, #0x12de                	// #4830
  402984:	91194000 	add	x0, x0, #0x650
  402988:	9119816b 	add	x11, x11, #0x660
  40298c:	9119c210 	add	x16, x16, #0x670
  402990:	9119e1ef 	add	x15, x15, #0x678
  402994:	9119a1ce 	add	x14, x14, #0x668
  402998:	911a01ad 	add	x13, x13, #0x680
  40299c:	911923de 	add	x30, x30, #0x648
  4029a0:	f9006ba0 	str	x0, [x29, #208]
  4029a4:	72b2a08a 	movk	w10, #0x9504, lsl #16
  4029a8:	b0000260 	adrp	x0, 44f000 <free_slotinfo+0x8>
  4029ac:	b900c3b4 	str	w20, [x29, #192]
  4029b0:	91196000 	add	x0, x0, #0x658
  4029b4:	f90067a0 	str	x0, [x29, #200]
  4029b8:	6b0a031f 	cmp	w24, w10
  4029bc:	b94006a0 	ldr	w0, [x21, #4]
  4029c0:	54001b40 	b.eq	402d28 <_nl_load_domain+0x6a0>  // b.none
  4029c4:	b94002a1 	ldr	w1, [x21]
  4029c8:	5ac00800 	rev	w0, w0
  4029cc:	8b000380 	add	x0, x28, x0
  4029d0:	5ac00821 	rev	w1, w1
  4029d4:	340021e1 	cbz	w1, 402e10 <_nl_load_domain+0x788>
  4029d8:	51000421 	sub	w1, w1, #0x1
  4029dc:	38614801 	ldrb	w1, [x0, w1, uxtw]
  4029e0:	35002181 	cbnz	w1, 402e10 <_nl_load_domain+0x788>
  4029e4:	39400001 	ldrb	w1, [x0]
  4029e8:	7101403f 	cmp	w1, #0x50
  4029ec:	54001a80 	b.eq	402d3c <_nl_load_domain+0x6b4>  // b.none
  4029f0:	7101243f 	cmp	w1, #0x49
  4029f4:	540047a1 	b.ne	4032e8 <_nl_load_domain+0xc60>  // b.any
  4029f8:	39400400 	ldrb	w0, [x0, #1]
  4029fc:	7100001f 	cmp	w0, #0x0
  402a00:	9a9f0161 	csel	x1, x11, xzr, eq  // eq = none
  402a04:	f8008461 	str	x1, [x3], #8
  402a08:	910022b5 	add	x21, x21, #0x8
  402a0c:	eb15009f 	cmp	x4, x21
  402a10:	54fffd41 	b.ne	4029b8 <_nl_load_domain+0x330>  // b.any
  402a14:	b940c3b4 	ldr	w20, [x29, #192]
  402a18:	52825bc0 	mov	w0, #0x12de                	// #4830
  402a1c:	72b2a080 	movk	w0, #0x9504, lsl #16
  402a20:	6b00031f 	cmp	w24, w0
  402a24:	29450381 	ldp	w1, w0, [x28, #40]
  402a28:	540022c0 	b.eq	402e80 <_nl_load_domain+0x7f8>  // b.none
  402a2c:	5ac00821 	rev	w1, w1
  402a30:	5ac00800 	rev	w0, w0
  402a34:	8b010381 	add	x1, x28, x1
  402a38:	f9005ba1 	str	x1, [x29, #176]
  402a3c:	b940eba1 	ldr	w1, [x29, #232]
  402a40:	8b000383 	add	x3, x28, x0
  402a44:	f9405ba5 	ldr	x5, [x29, #176]
  402a48:	d37e7e84 	ubfiz	x4, x20, #2, #32
  402a4c:	51000422 	sub	w2, w1, #0x1
  402a50:	a909ebb6 	stp	x22, x26, [x29, #152]
  402a54:	d2800081 	mov	x1, #0x4                   	// #4
  402a58:	f94073b6 	ldr	x22, [x29, #224]
  402a5c:	b940dbb5 	ldr	w21, [x29, #216]
  402a60:	8b224820 	add	x0, x1, w2, uxtw #2
  402a64:	f9006fb7 	str	x23, [x29, #216]
  402a68:	aa0503fa 	mov	x26, x5
  402a6c:	aa0303f7 	mov	x23, x3
  402a70:	8b050000 	add	x0, x0, x5
  402a74:	a90893b3 	stp	x19, x4, [x29, #136]
  402a78:	f90057a3 	str	x3, [x29, #168]
  402a7c:	a90b93a0 	stp	x0, x4, [x29, #184]
  402a80:	f90067bc 	str	x28, [x29, #200]
  402a84:	b900d3bf 	str	wzr, [x29, #208]
  402a88:	d2800014 	mov	x20, #0x0                   	// #0
  402a8c:	52825bc0 	mov	w0, #0x12de                	// #4830
  402a90:	72b2a080 	movk	w0, #0x9504, lsl #16
  402a94:	6b00031f 	cmp	w24, w0
  402a98:	540019e0 	b.eq	402dd4 <_nl_load_domain+0x74c>  // b.none
  402a9c:	b4003f94 	cbz	x20, 40328c <_nl_load_domain+0xc04>
  402aa0:	b94002e0 	ldr	w0, [x23]
  402aa4:	5ac00801 	rev	w1, w0
  402aa8:	f94067a0 	ldr	x0, [x29, #200]
  402aac:	d2800013 	mov	x19, #0x0                   	// #0
  402ab0:	8b010001 	add	x1, x0, x1
  402ab4:	b9400820 	ldr	w0, [x1, #8]
  402ab8:	3100041f 	cmn	w0, #0x1
  402abc:	1a9f07e0 	cset	w0, ne  // ne = any
  402ac0:	35001b20 	cbnz	w0, 402e24 <_nl_load_domain+0x79c>
  402ac4:	9103e3a0 	add	x0, x29, #0xf8
  402ac8:	f8347813 	str	x19, [x0, x20, lsl #3]
  402acc:	b4001a94 	cbz	x20, 402e1c <_nl_load_domain+0x794>
  402ad0:	b940d3a0 	ldr	w0, [x29, #208]
  402ad4:	f94083a1 	ldr	x1, [x29, #256]
  402ad8:	11000400 	add	w0, w0, #0x1
  402adc:	b900d3a0 	str	w0, [x29, #208]
  402ae0:	f9407fa0 	ldr	x0, [x29, #248]
  402ae4:	8b010000 	add	x0, x0, x1
  402ae8:	f94063a1 	ldr	x1, [x29, #192]
  402aec:	8b000020 	add	x0, x1, x0
  402af0:	f90063a0 	str	x0, [x29, #192]
  402af4:	f9405fa0 	ldr	x0, [x29, #184]
  402af8:	9100135a 	add	x26, x26, #0x4
  402afc:	910012f7 	add	x23, x23, #0x4
  402b00:	eb1a001f 	cmp	x0, x26
  402b04:	54fffc21 	b.ne	402a88 <_nl_load_domain+0x400>  // b.any
  402b08:	b940d3a0 	ldr	w0, [x29, #208]
  402b0c:	f94047b3 	ldr	x19, [x29, #136]
  402b10:	a949ebb6 	ldp	x22, x26, [x29, #152]
  402b14:	f94067bc 	ldr	x28, [x29, #200]
  402b18:	f9406fb7 	ldr	x23, [x29, #216]
  402b1c:	35001fc0 	cbnz	w0, 402f14 <_nl_load_domain+0x88c>
  402b20:	b90042df 	str	wzr, [x22, #64]
  402b24:	a904fedf 	stp	xzr, xzr, [x22, #72]
  402b28:	f94073a0 	ldr	x0, [x29, #224]
  402b2c:	940042ad 	bl	4135e0 <__free>
  402b30:	b0000260 	adrp	x0, 44f000 <free_slotinfo+0x8>
  402b34:	a9077edf 	stp	xzr, xzr, [x22, #112]
  402b38:	f9431400 	ldr	x0, [x0, #1576]
  402b3c:	b4000080 	cbz	x0, 402b4c <_nl_load_domain+0x4c4>
  402b40:	d2800001 	mov	x1, #0x0                   	// #0
  402b44:	910202c0 	add	x0, x22, #0x80
  402b48:	d503201f 	nop
  402b4c:	b00002e2 	adrp	x2, 45f000 <translit_from_idx+0x14b8>
  402b50:	9103c3a4 	add	x4, x29, #0xf0
  402b54:	52800003 	mov	w3, #0x0                   	// #0
  402b58:	912e0042 	add	x2, x2, #0xb80
  402b5c:	aa1303e1 	mov	x1, x19
  402b60:	aa1703e0 	mov	x0, x23
  402b64:	97fff9f5 	bl	401338 <_nl_find_msg>
  402b68:	b100041f 	cmn	x0, #0x1
  402b6c:	54000700 	b.eq	402c4c <_nl_load_domain+0x5c4>  // b.none
  402b70:	910302c2 	add	x2, x22, #0xc0
  402b74:	9102e2c1 	add	x1, x22, #0xb8
  402b78:	94000954 	bl	4050c8 <__gettext_extract_plural>
  402b7c:	913f2360 	add	x0, x27, #0xfc8
  402b80:	b9400401 	ldr	w1, [x0, #4]
  402b84:	f94017b6 	ldr	x22, [x29, #40]
  402b88:	f9401fb8 	ldr	x24, [x29, #56]
  402b8c:	f94027ba 	ldr	x26, [x29, #72]
  402b90:	f9402fbc 	ldr	x28, [x29, #88]
  402b94:	17fffeee 	b	40274c <_nl_load_domain+0xc4>
  402b98:	b100041f 	cmn	x0, #0x1
  402b9c:	540000a1 	b.ne	402bb0 <_nl_load_domain+0x528>  // b.any
  402ba0:	f94073a0 	ldr	x0, [x29, #224]
  402ba4:	b8606aa0 	ldr	w0, [x21, x0]
  402ba8:	7100101f 	cmp	w0, #0x4
  402bac:	54000880 	b.eq	402cbc <_nl_load_domain+0x634>  // b.none
  402bb0:	f9401fb8 	ldr	x24, [x29, #56]
  402bb4:	f94027ba 	ldr	x26, [x29, #72]
  402bb8:	f9402fbc 	ldr	x28, [x29, #88]
  402bbc:	2a1603e0 	mov	w0, w22
  402bc0:	94005524 	bl	418050 <__close_nocancel>
  402bc4:	913f2360 	add	x0, x27, #0xfc8
  402bc8:	f94017b6 	ldr	x22, [x29, #40]
  402bcc:	b9400401 	ldr	w1, [x0, #4]
  402bd0:	17fffedf 	b	40274c <_nl_load_domain+0xc4>
  402bd4:	aa0203e0 	mov	x0, x2
  402bd8:	94005bfc 	bl	419bc8 <__lll_lock_wait_private>
  402bdc:	17fffec7 	b	4026f8 <_nl_load_domain+0x70>
  402be0:	5ac00800 	rev	w0, w0
  402be4:	13107c01 	asr	w1, w0, #16
  402be8:	7100043f 	cmp	w1, #0x1
  402bec:	54000528 	b.hi	402c90 <_nl_load_domain+0x608>  // b.pmore
  402bf0:	29410f84 	ldp	w4, w3, [x28, #8]
  402bf4:	29425381 	ldp	w1, w20, [x28, #16]
  402bf8:	5ac00863 	rev	w3, w3
  402bfc:	5ac00884 	rev	w4, w4
  402c00:	8b030383 	add	x3, x28, x3
  402c04:	5ac00821 	rev	w1, w1
  402c08:	5ac00a94 	rev	w20, w20
  402c0c:	8b010381 	add	x1, x28, x1
  402c10:	b9002ac4 	str	w4, [x22, #40]
  402c14:	a90306c3 	stp	x3, x1, [x22, #48]
  402c18:	71000a9f 	cmp	w20, #0x2
  402c1c:	b9005ad4 	str	w20, [x22, #88]
  402c20:	54000089 	b.ls	402c30 <_nl_load_domain+0x5a8>  // b.plast
  402c24:	b9401b81 	ldr	w1, [x28, #24]
  402c28:	5ac00821 	rev	w1, w1
  402c2c:	17ffff28 	b	4028cc <_nl_load_domain+0x244>
  402c30:	f90032df 	str	xzr, [x22, #96]
  402c34:	12003c00 	and	w0, w0, #0xffff
  402c38:	b9006ad5 	str	w21, [x22, #104]
  402c3c:	35000120 	cbnz	w0, 402c60 <_nl_load_domain+0x5d8>
  402c40:	b90042df 	str	wzr, [x22, #64]
  402c44:	a904fedf 	stp	xzr, xzr, [x22, #72]
  402c48:	17ffffba 	b	402b30 <_nl_load_domain+0x4a8>
  402c4c:	b0000260 	adrp	x0, 44f000 <free_slotinfo+0x8>
  402c50:	f9431800 	ldr	x0, [x0, #1584]
  402c54:	b4000060 	cbz	x0, 402c60 <_nl_load_domain+0x5d8>
  402c58:	910202c0 	add	x0, x22, #0x80
  402c5c:	d503201f 	nop
  402c60:	f94012c0 	ldr	x0, [x22, #32]
  402c64:	9400425f 	bl	4135e0 <__free>
  402c68:	b940efa0 	ldr	w0, [x29, #236]
  402c6c:	34000580 	cbz	w0, 402d1c <_nl_load_domain+0x694>
  402c70:	aa1a03e1 	mov	x1, x26
  402c74:	aa1c03e0 	mov	x0, x28
  402c78:	94005732 	bl	418940 <__munmap>
  402c7c:	aa1603e0 	mov	x0, x22
  402c80:	94004258 	bl	4135e0 <__free>
  402c84:	913f2360 	add	x0, x27, #0xfc8
  402c88:	f9000aff 	str	xzr, [x23, #16]
  402c8c:	17ffffbd 	b	402b80 <_nl_load_domain+0x4f8>
  402c90:	d2800000 	mov	x0, #0x0                   	// #0
  402c94:	17fffff4 	b	402c64 <_nl_load_domain+0x5dc>
  402c98:	aa1a03e0 	mov	x0, x26
  402c9c:	940040b9 	bl	412f80 <__libc_malloc>
  402ca0:	aa0003fc 	mov	x28, x0
  402ca4:	b4fff860 	cbz	x0, 402bb0 <_nl_load_domain+0x528>
  402ca8:	aa0003f8 	mov	x24, x0
  402cac:	aa1a03f4 	mov	x20, x26
  402cb0:	f00003c0 	adrp	x0, 47d000 <__FRAME_END__+0xf8fc>
  402cb4:	f947c400 	ldr	x0, [x0, #3976]
  402cb8:	f90073a0 	str	x0, [x29, #224]
  402cbc:	aa1403e2 	mov	x2, x20
  402cc0:	aa1803e1 	mov	x1, x24
  402cc4:	2a1603e0 	mov	w0, w22
  402cc8:	940053c8 	bl	417be8 <__read_nocancel>
  402ccc:	f100001f 	cmp	x0, #0x0
  402cd0:	54fff64d 	b.le	402b98 <_nl_load_domain+0x510>
  402cd4:	8b000318 	add	x24, x24, x0
  402cd8:	eb000294 	subs	x20, x20, x0
  402cdc:	54ffff01 	b.ne	402cbc <_nl_load_domain+0x634>  // b.any
  402ce0:	2a1603e0 	mov	w0, w22
  402ce4:	940054db 	bl	418050 <__close_nocancel>
  402ce8:	b9400398 	ldr	w24, [x28]
  402cec:	52825bc1 	mov	w1, #0x12de                	// #4830
  402cf0:	72b2a081 	movk	w1, #0x9504, lsl #16
  402cf4:	528092a0 	mov	w0, #0x495                 	// #1173
  402cf8:	6b01031f 	cmp	w24, w1
  402cfc:	72bbc240 	movk	w0, #0xde12, lsl #16
  402d00:	1a9f07f5 	cset	w21, ne  // ne = any
  402d04:	710002bf 	cmp	w21, #0x0
  402d08:	7a401304 	ccmp	w24, w0, #0x4, ne  // ne = any
  402d0c:	54ffda60 	b.eq	402858 <_nl_load_domain+0x1d0>  // b.none
  402d10:	aa1c03e0 	mov	x0, x28
  402d14:	94004233 	bl	4135e0 <__free>
  402d18:	17ffff99 	b	402b7c <_nl_load_domain+0x4f4>
  402d1c:	aa1c03e0 	mov	x0, x28
  402d20:	94004230 	bl	4135e0 <__free>
  402d24:	17ffffd6 	b	402c7c <_nl_load_domain+0x5f4>
  402d28:	8b000380 	add	x0, x28, x0
  402d2c:	b94002a1 	ldr	w1, [x21]
  402d30:	17ffff29 	b	4029d4 <_nl_load_domain+0x34c>
  402d34:	f94027ba 	ldr	x26, [x29, #72]
  402d38:	17ffffa1 	b	402bbc <_nl_load_domain+0x534>
  402d3c:	39400401 	ldrb	w1, [x0, #1]
  402d40:	7101483f 	cmp	w1, #0x52
  402d44:	d2800001 	mov	x1, #0x0                   	// #0
  402d48:	54ffe5e1 	b.ne	402a04 <_nl_load_domain+0x37c>  // b.any
  402d4c:	39400802 	ldrb	w2, [x0, #2]
  402d50:	7101245f 	cmp	w2, #0x49
  402d54:	54ffe581 	b.ne	402a04 <_nl_load_domain+0x37c>  // b.any
  402d58:	39400c02 	ldrb	w2, [x0, #3]
  402d5c:	7101905f 	cmp	w2, #0x64
  402d60:	1a9f17e5 	cset	w5, eq  // eq = none
  402d64:	7101a45f 	cmp	w2, #0x69
  402d68:	1a9f14a5 	csinc	w5, w5, wzr, ne  // ne = any
  402d6c:	7101bc5f 	cmp	w2, #0x6f
  402d70:	1a9f14b2 	csinc	w18, w5, wzr, ne  // ne = any
  402d74:	7101d45f 	cmp	w2, #0x75
  402d78:	1a9f1651 	csinc	w17, w18, wzr, ne  // ne = any
  402d7c:	7101e05f 	cmp	w2, #0x78
  402d80:	1a9f162c 	csinc	w12, w17, wzr, ne  // ne = any
  402d84:	7101605f 	cmp	w2, #0x58
  402d88:	7a401980 	ccmp	w12, #0x0, #0x0, ne  // ne = any
  402d8c:	54ffe3c0 	b.eq	402a04 <_nl_load_domain+0x37c>  // b.none
  402d90:	39401014 	ldrb	w20, [x0, #4]
  402d94:	7100e29f 	cmp	w20, #0x38
  402d98:	54000a40 	b.eq	402ee0 <_nl_load_domain+0x858>  // b.none
  402d9c:	7100c69f 	cmp	w20, #0x31
  402da0:	54000800 	b.eq	402ea0 <_nl_load_domain+0x818>  // b.none
  402da4:	7100ce9f 	cmp	w20, #0x33
  402da8:	54002a81 	b.ne	4032f8 <_nl_load_domain+0xc70>  // b.any
  402dac:	39401401 	ldrb	w1, [x0, #5]
  402db0:	7100c83f 	cmp	w1, #0x32
  402db4:	54002780 	b.eq	4032a4 <_nl_load_domain+0xc1c>  // b.none
  402db8:	d2800001 	mov	x1, #0x0                   	// #0
  402dbc:	17ffff12 	b	402a04 <_nl_load_domain+0x37c>
  402dc0:	b900eba0 	str	w0, [x29, #232]
  402dc4:	34fff3e0 	cbz	w0, 402c40 <_nl_load_domain+0x5b8>
  402dc8:	2943d780 	ldp	w0, w21, [x28, #28]
  402dcc:	b900dba0 	str	w0, [x29, #216]
  402dd0:	17fffed1 	b	402914 <_nl_load_domain+0x28c>
  402dd4:	b4002614 	cbz	x20, 403294 <_nl_load_domain+0xc0c>
  402dd8:	b94002e1 	ldr	w1, [x23]
  402ddc:	17ffff33 	b	402aa8 <_nl_load_domain+0x420>
  402de0:	aa1a03e1 	mov	x1, x26
  402de4:	aa1c03e0 	mov	x0, x28
  402de8:	940056d6 	bl	418940 <__munmap>
  402dec:	f94017b6 	ldr	x22, [x29, #40]
  402df0:	b9400681 	ldr	w1, [x20, #4]
  402df4:	f9401fb8 	ldr	x24, [x29, #56]
  402df8:	f94027ba 	ldr	x26, [x29, #72]
  402dfc:	f9402fbc 	ldr	x28, [x29, #88]
  402e00:	17fffe53 	b	40274c <_nl_load_domain+0xc4>
  402e04:	a949ebb6 	ldp	x22, x26, [x29, #152]
  402e08:	f94067bc 	ldr	x28, [x29, #200]
  402e0c:	f9406fb7 	ldr	x23, [x29, #216]
  402e10:	f94073a0 	ldr	x0, [x29, #224]
  402e14:	940041f3 	bl	4135e0 <__free>
  402e18:	17ffff92 	b	402c60 <_nl_load_domain+0x5d8>
  402e1c:	d2800034 	mov	x20, #0x1                   	// #1
  402e20:	17ffff1b 	b	402a8c <_nl_load_domain+0x404>
  402e24:	9100103c 	add	x28, x1, #0x4
  402e28:	1400000e 	b	402e60 <_nl_load_domain+0x7d8>
  402e2c:	5ac00800 	rev	w0, w0
  402e30:	8b130013 	add	x19, x0, x19
  402e34:	b9400780 	ldr	w0, [x28, #4]
  402e38:	5ac00800 	rev	w0, w0
  402e3c:	3100041f 	cmn	w0, #0x1
  402e40:	54ffe420 	b.eq	402ac4 <_nl_load_domain+0x43c>  // b.none
  402e44:	6b15001f 	cmp	w0, w21
  402e48:	54fffde2 	b.cs	402e04 <_nl_load_domain+0x77c>  // b.hs, b.nlast
  402e4c:	f8605ac0 	ldr	x0, [x22, w0, uxtw #3]
  402e50:	b4ffe520 	cbz	x0, 402af4 <_nl_load_domain+0x46c>
  402e54:	940047db 	bl	414dc0 <__strlen>
  402e58:	9100239c 	add	x28, x28, #0x8
  402e5c:	8b130013 	add	x19, x0, x19
  402e60:	52825bc0 	mov	w0, #0x12de                	// #4830
  402e64:	72b2a080 	movk	w0, #0x9504, lsl #16
  402e68:	6b00031f 	cmp	w24, w0
  402e6c:	b9400380 	ldr	w0, [x28]
  402e70:	54fffde1 	b.ne	402e2c <_nl_load_domain+0x7a4>  // b.any
  402e74:	8b130013 	add	x19, x0, x19
  402e78:	b9400780 	ldr	w0, [x28, #4]
  402e7c:	17fffff0 	b	402e3c <_nl_load_domain+0x7b4>
  402e80:	8b010381 	add	x1, x28, x1
  402e84:	f9005ba1 	str	x1, [x29, #176]
  402e88:	17fffeed 	b	402a3c <_nl_load_domain+0x3b4>
  402e8c:	f90017b6 	str	x22, [x29, #40]
  402e90:	f9001fb8 	str	x24, [x29, #56]
  402e94:	f90027ba 	str	x26, [x29, #72]
  402e98:	f9002fbc 	str	x28, [x29, #88]
  402e9c:	94005c3b 	bl	419f88 <__stack_chk_fail>
  402ea0:	39401414 	ldrb	w20, [x0, #5]
  402ea4:	7100da9f 	cmp	w20, #0x36
  402ea8:	54ffdae1 	b.ne	402a04 <_nl_load_domain+0x37c>  // b.any
  402eac:	39401800 	ldrb	w0, [x0, #6]
  402eb0:	35001f60 	cbnz	w0, 40329c <_nl_load_domain+0xc14>
  402eb4:	7101905f 	cmp	w2, #0x64
  402eb8:	540021c0 	b.eq	4032f0 <_nl_load_domain+0xc68>  // b.none
  402ebc:	35003f05 	cbnz	w5, 40369c <_nl_load_domain+0x1014>
  402ec0:	35003eb2 	cbnz	w18, 403694 <_nl_load_domain+0x100c>
  402ec4:	35003f51 	cbnz	w17, 4036ac <_nl_load_domain+0x1024>
  402ec8:	f94067a0 	ldr	x0, [x29, #200]
  402ecc:	7100019f 	cmp	w12, #0x0
  402ed0:	b00002e1 	adrp	x1, 45f000 <translit_from_idx+0x14b8>
  402ed4:	912d4021 	add	x1, x1, #0xb50
  402ed8:	9a800021 	csel	x1, x1, x0, eq  // eq = none
  402edc:	17fffeca 	b	402a04 <_nl_load_domain+0x37c>
  402ee0:	39401400 	ldrb	w0, [x0, #5]
  402ee4:	35ffd900 	cbnz	w0, 402a04 <_nl_load_domain+0x37c>
  402ee8:	7101905f 	cmp	w2, #0x64
  402eec:	54001f60 	b.eq	4032d8 <_nl_load_domain+0xc50>  // b.none
  402ef0:	35004065 	cbnz	w5, 4036fc <_nl_load_domain+0x1074>
  402ef4:	35004012 	cbnz	w18, 4036f4 <_nl_load_domain+0x106c>
  402ef8:	35003fb1 	cbnz	w17, 4036ec <_nl_load_domain+0x1064>
  402efc:	f94067a0 	ldr	x0, [x29, #200]
  402f00:	7100019f 	cmp	w12, #0x0
  402f04:	b00002e1 	adrp	x1, 45f000 <translit_from_idx+0x14b8>
  402f08:	912d4021 	add	x1, x1, #0xb50
  402f0c:	9a800021 	csel	x1, x1, x0, eq  // eq = none
  402f10:	17fffebd 	b	402a04 <_nl_load_domain+0x37c>
  402f14:	f94063a1 	ldr	x1, [x29, #192]
  402f18:	531f7800 	lsl	w0, w0, #1
  402f1c:	8b205020 	add	x0, x1, w0, uxtw #4
  402f20:	94004018 	bl	412f80 <__libc_malloc>
  402f24:	aa0003e3 	mov	x3, x0
  402f28:	b4ffe9c0 	cbz	x0, 402c60 <_nl_load_domain+0x5d8>
  402f2c:	f9406ba0 	ldr	x0, [x29, #208]
  402f30:	d2800005 	mov	x5, #0x0                   	// #0
  402f34:	a9085fb3 	stp	x19, x23, [x29, #128]
  402f38:	5280000a 	mov	w10, #0x0                   	// #0
  402f3c:	f9004fba 	str	x26, [x29, #152]
  402f40:	aa0503f3 	mov	x19, x5
  402f44:	d37c7c18 	ubfiz	x24, x0, #4, #32
  402f48:	aa1c03fa 	mov	x26, x28
  402f4c:	8b180060 	add	x0, x3, x24
  402f50:	f9006fa0 	str	x0, [x29, #216]
  402f54:	8b180018 	add	x24, x0, x24
  402f58:	f9404ba0 	ldr	x0, [x29, #144]
  402f5c:	aa1603fc 	mov	x28, x22
  402f60:	f9004bb8 	str	x24, [x29, #144]
  402f64:	8b000314 	add	x20, x24, x0
  402f68:	2a0a03f8 	mov	w24, w10
  402f6c:	aa1403f7 	mov	x23, x20
  402f70:	f90012c3 	str	x3, [x22, #32]
  402f74:	f9005fa3 	str	x3, [x29, #184]
  402f78:	b9401b94 	ldr	w20, [x28, #24]
  402f7c:	52800002 	mov	w2, #0x0                   	// #0
  402f80:	a94a97a6 	ldp	x6, x5, [x29, #168]
  402f84:	f94073a4 	ldr	x4, [x29, #224]
  402f88:	34000eb4 	cbz	w20, 40315c <_nl_load_domain+0xad4>
  402f8c:	340038c2 	cbz	w2, 4036a4 <_nl_load_domain+0x101c>
  402f90:	b87378c0 	ldr	w0, [x6, x19, lsl #2]
  402f94:	5ac00800 	rev	w0, w0
  402f98:	8b000340 	add	x0, x26, x0
  402f9c:	b9400801 	ldr	w1, [x0, #8]
  402fa0:	3100043f 	cmn	w1, #0x1
  402fa4:	1a9f07e1 	cset	w1, ne  // ne = any
  402fa8:	35000c21 	cbnz	w1, 40312c <_nl_load_domain+0xaa4>
  402fac:	34000e82 	cbz	w2, 40317c <_nl_load_domain+0xaf4>
  402fb0:	f9405fa0 	ldr	x0, [x29, #184]
  402fb4:	d37c7f15 	ubfiz	x21, x24, #4, #32
  402fb8:	52800016 	mov	w22, #0x0                   	// #0
  402fbc:	b9007fb8 	str	w24, [x29, #124]
  402fc0:	8b150000 	add	x0, x0, x21
  402fc4:	f90067a0 	str	x0, [x29, #200]
  402fc8:	f9406fa0 	ldr	x0, [x29, #216]
  402fcc:	2a1603f8 	mov	w24, w22
  402fd0:	f90053bc 	str	x28, [x29, #160]
  402fd4:	2a1403fc 	mov	w28, w20
  402fd8:	aa1303f4 	mov	x20, x19
  402fdc:	aa1703f3 	mov	x19, x23
  402fe0:	8b150000 	add	x0, x0, x21
  402fe4:	f90063a0 	str	x0, [x29, #192]
  402fe8:	34000cfc 	cbz	w28, 403184 <_nl_load_domain+0xafc>
  402fec:	34001318 	cbz	w24, 40324c <_nl_load_domain+0xbc4>
  402ff0:	f94057a0 	ldr	x0, [x29, #168]
  402ff4:	f94063b7 	ldr	x23, [x29, #192]
  402ff8:	b8747801 	ldr	w1, [x0, x20, lsl #2]
  402ffc:	5ac00821 	rev	w1, w1
  403000:	8b010340 	add	x0, x26, x1
  403004:	b8616b55 	ldr	w21, [x26, x1]
  403008:	5ac00ab5 	rev	w21, w21
  40300c:	8b150355 	add	x21, x26, x21
  403010:	b9400801 	ldr	w1, [x0, #8]
  403014:	3100043f 	cmn	w1, #0x1
  403018:	b9400401 	ldr	w1, [x0, #4]
  40301c:	54000d01 	b.ne	4031bc <_nl_load_domain+0xb34>  // b.any
  403020:	5ac00820 	rev	w0, w1
  403024:	a90056e0 	stp	x0, x21, [x23]
  403028:	340034d8 	cbz	w24, 4036c0 <_nl_load_domain+0x1038>
  40302c:	b9407fb8 	ldr	w24, [x29, #124]
  403030:	aa1303f7 	mov	x23, x19
  403034:	f94053bc 	ldr	x28, [x29, #160]
  403038:	aa1403f3 	mov	x19, x20
  40303c:	11000718 	add	w24, w24, #0x1
  403040:	b940eba0 	ldr	w0, [x29, #232]
  403044:	91000673 	add	x19, x19, #0x1
  403048:	6b13001f 	cmp	w0, w19
  40304c:	54fff968 	b.hi	402f78 <_nl_load_domain+0x8f0>  // b.pmore
  403050:	b940d3a0 	ldr	w0, [x29, #208]
  403054:	aa1c03f6 	mov	x22, x28
  403058:	a9485fb3 	ldp	x19, x23, [x29, #128]
  40305c:	aa1a03fc 	mov	x28, x26
  403060:	6b18001f 	cmp	w0, w24
  403064:	f9405fa3 	ldr	x3, [x29, #184]
  403068:	a9496bb8 	ldp	x24, x26, [x29, #144]
  40306c:	54003241 	b.ne	4036b4 <_nl_load_domain+0x102c>  // b.any
  403070:	d2800000 	mov	x0, #0x0                   	// #0
  403074:	b9405ac2 	ldr	w2, [x22, #88]
  403078:	14000008 	b	403098 <_nl_load_domain+0xa10>
  40307c:	b9406ac4 	ldr	w4, [x22, #104]
  403080:	f94032c1 	ldr	x1, [x22, #96]
  403084:	b8607821 	ldr	w1, [x1, x0, lsl #2]
  403088:	34000044 	cbz	w4, 403090 <_nl_load_domain+0xa08>
  40308c:	5ac00821 	rev	w1, w1
  403090:	b8207b01 	str	w1, [x24, x0, lsl #2]
  403094:	91000400 	add	x0, x0, #0x1
  403098:	6b00005f 	cmp	w2, w0
  40309c:	54ffff08 	b.hi	40307c <_nl_load_domain+0x9f4>  // b.pmore
  4030a0:	aa0303f4 	mov	x20, x3
  4030a4:	d2800015 	mov	x21, #0x0                   	// #0
  4030a8:	b940d3a0 	ldr	w0, [x29, #208]
  4030ac:	2a1503e3 	mov	w3, w21
  4030b0:	6b15001f 	cmp	w0, w21
  4030b4:	54000de9 	b.ls	403270 <_nl_load_domain+0xbe8>  // b.plast
  4030b8:	8b151280 	add	x0, x20, x21, lsl #4
  4030bc:	b900eba3 	str	w3, [x29, #232]
  4030c0:	f9400400 	ldr	x0, [x0, #8]
  4030c4:	94000857 	bl	405220 <__hash_string>
  4030c8:	b9405ac2 	ldr	w2, [x22, #88]
  4030cc:	b940eba3 	ldr	w3, [x29, #232]
  4030d0:	51000845 	sub	w5, w2, #0x2
  4030d4:	1ac20801 	udiv	w1, w0, w2
  4030d8:	1ac50804 	udiv	w4, w0, w5
  4030dc:	1b028021 	msub	w1, w1, w2, w0
  4030e0:	1b058084 	msub	w4, w4, w5, w0
  4030e4:	11000484 	add	w4, w4, #0x1
  4030e8:	4b040046 	sub	w6, w2, w4
  4030ec:	4b020082 	sub	w2, w4, w2
  4030f0:	14000005 	b	403104 <_nl_load_domain+0xa7c>
  4030f4:	0b020020 	add	w0, w1, w2
  4030f8:	6b0100df 	cmp	w6, w1
  4030fc:	0b040021 	add	w1, w1, w4
  403100:	1a808021 	csel	w1, w1, w0, hi  // hi = pmore
  403104:	2a0103e0 	mov	w0, w1
  403108:	8b000b05 	add	x5, x24, x0, lsl #2
  40310c:	b8607b00 	ldr	w0, [x24, x0, lsl #2]
  403110:	35ffff20 	cbnz	w0, 4030f4 <_nl_load_domain+0xa6c>
  403114:	b9402ac0 	ldr	w0, [x22, #40]
  403118:	910006b5 	add	x21, x21, #0x1
  40311c:	11000400 	add	w0, w0, #0x1
  403120:	0b030000 	add	w0, w0, w3
  403124:	b90000a0 	str	w0, [x5]
  403128:	17ffffe0 	b	4030a8 <_nl_load_domain+0xa20>
  40312c:	91001000 	add	x0, x0, #0x4
  403130:	14000004 	b	403140 <_nl_load_domain+0xab8>
  403134:	f8615881 	ldr	x1, [x4, w1, uxtw #3]
  403138:	b4fff841 	cbz	x1, 403040 <_nl_load_domain+0x9b8>
  40313c:	91002000 	add	x0, x0, #0x8
  403140:	b9400401 	ldr	w1, [x0, #4]
  403144:	7100029f 	cmp	w20, #0x0
  403148:	5ac00823 	rev	w3, w1
  40314c:	1a811061 	csel	w1, w3, w1, ne  // ne = any
  403150:	3100043f 	cmn	w1, #0x1
  403154:	54ffff01 	b.ne	403134 <_nl_load_domain+0xaac>  // b.any
  403158:	17ffff95 	b	402fac <_nl_load_domain+0x924>
  40315c:	34002ae2 	cbz	w2, 4036b8 <_nl_load_domain+0x1030>
  403160:	b87378c0 	ldr	w0, [x6, x19, lsl #2]
  403164:	8b000340 	add	x0, x26, x0
  403168:	b9400801 	ldr	w1, [x0, #8]
  40316c:	3100043f 	cmn	w1, #0x1
  403170:	1a9f07e1 	cset	w1, ne  // ne = any
  403174:	34fff1c1 	cbz	w1, 402fac <_nl_load_domain+0x924>
  403178:	17ffffed 	b	40312c <_nl_load_domain+0xaa4>
  40317c:	52800022 	mov	w2, #0x1                   	// #1
  403180:	17ffff82 	b	402f88 <_nl_load_domain+0x900>
  403184:	34002a78 	cbz	w24, 4036d0 <_nl_load_domain+0x1048>
  403188:	f94057a0 	ldr	x0, [x29, #168]
  40318c:	f94063b7 	ldr	x23, [x29, #192]
  403190:	b8747801 	ldr	w1, [x0, x20, lsl #2]
  403194:	8b010340 	add	x0, x26, x1
  403198:	b8616b55 	ldr	w21, [x26, x1]
  40319c:	8b150355 	add	x21, x26, x21
  4031a0:	b9400801 	ldr	w1, [x0, #8]
  4031a4:	3100043f 	cmn	w1, #0x1
  4031a8:	b9400401 	ldr	w1, [x0, #4]
  4031ac:	54000081 	b.ne	4031bc <_nl_load_domain+0xb34>  // b.any
  4031b0:	2a0103e0 	mov	w0, w1
  4031b4:	a90056e0 	stp	x0, x21, [x23]
  4031b8:	17ffff9c 	b	403028 <_nl_load_domain+0x9a0>
  4031bc:	f9003bb4 	str	x20, [x29, #112]
  4031c0:	91001016 	add	x22, x0, #0x4
  4031c4:	aa1503f4 	mov	x20, x21
  4031c8:	f90006f3 	str	x19, [x23, #8]
  4031cc:	294056c0 	ldp	w0, w21, [x22]
  4031d0:	3400007c 	cbz	w28, 4031dc <_nl_load_domain+0xb54>
  4031d4:	5ac00800 	rev	w0, w0
  4031d8:	5ac00ab5 	rev	w21, w21
  4031dc:	35000200 	cbnz	w0, 40321c <_nl_load_domain+0xb94>
  4031e0:	310006bf 	cmn	w21, #0x1
  4031e4:	540002a0 	b.eq	403238 <_nl_load_domain+0xbb0>  // b.none
  4031e8:	f94073a0 	ldr	x0, [x29, #224]
  4031ec:	910022d6 	add	x22, x22, #0x8
  4031f0:	f8755801 	ldr	x1, [x0, w21, uxtw #3]
  4031f4:	f90037a1 	str	x1, [x29, #104]
  4031f8:	aa0103e0 	mov	x0, x1
  4031fc:	940046f1 	bl	414dc0 <__strlen>
  403200:	aa0003f5 	mov	x21, x0
  403204:	f94037a1 	ldr	x1, [x29, #104]
  403208:	aa0003e2 	mov	x2, x0
  40320c:	aa1303e0 	mov	x0, x19
  403210:	8b150273 	add	x19, x19, x21
  403214:	97fff40f 	bl	400250 <.plt+0x10>
  403218:	17ffffed 	b	4031cc <_nl_load_domain+0xb44>
  40321c:	2a0003e2 	mov	w2, w0
  403220:	aa1403e1 	mov	x1, x20
  403224:	aa1303e0 	mov	x0, x19
  403228:	8b020294 	add	x20, x20, x2
  40322c:	8b020273 	add	x19, x19, x2
  403230:	97fff408 	bl	400250 <.plt+0x10>
  403234:	17ffffeb 	b	4031e0 <_nl_load_domain+0xb58>
  403238:	f94006e0 	ldr	x0, [x23, #8]
  40323c:	f9403bb4 	ldr	x20, [x29, #112]
  403240:	cb000260 	sub	x0, x19, x0
  403244:	f90002e0 	str	x0, [x23]
  403248:	17ffff78 	b	403028 <_nl_load_domain+0x9a0>
  40324c:	f9405ba0 	ldr	x0, [x29, #176]
  403250:	f94067b7 	ldr	x23, [x29, #200]
  403254:	b8747801 	ldr	w1, [x0, x20, lsl #2]
  403258:	5ac00821 	rev	w1, w1
  40325c:	8b010340 	add	x0, x26, x1
  403260:	b8616b55 	ldr	w21, [x26, x1]
  403264:	5ac00ab5 	rev	w21, w21
  403268:	8b150355 	add	x21, x26, x21
  40326c:	17ffff69 	b	403010 <_nl_load_domain+0x988>
  403270:	b90042c0 	str	w0, [x22, #64]
  403274:	f9406fa0 	ldr	x0, [x29, #216]
  403278:	f90026d4 	str	x20, [x22, #72]
  40327c:	f9002ac0 	str	x0, [x22, #80]
  403280:	f90032d8 	str	x24, [x22, #96]
  403284:	b9006adf 	str	wzr, [x22, #104]
  403288:	17fffe28 	b	402b28 <_nl_load_domain+0x4a0>
  40328c:	b9400340 	ldr	w0, [x26]
  403290:	17fffe05 	b	402aa4 <_nl_load_domain+0x41c>
  403294:	b9400341 	ldr	w1, [x26]
  403298:	17fffe04 	b	402aa8 <_nl_load_domain+0x420>
  40329c:	d2800001 	mov	x1, #0x0                   	// #0
  4032a0:	17fffdd9 	b	402a04 <_nl_load_domain+0x37c>
  4032a4:	39401800 	ldrb	w0, [x0, #6]
  4032a8:	350001c0 	cbnz	w0, 4032e0 <_nl_load_domain+0xc58>
  4032ac:	7101905f 	cmp	w2, #0x64
  4032b0:	54002360 	b.eq	40371c <_nl_load_domain+0x1094>  // b.none
  4032b4:	35002305 	cbnz	w5, 403714 <_nl_load_domain+0x108c>
  4032b8:	350022b2 	cbnz	w18, 40370c <_nl_load_domain+0x1084>
  4032bc:	35002251 	cbnz	w17, 403704 <_nl_load_domain+0x107c>
  4032c0:	f94067a0 	ldr	x0, [x29, #200]
  4032c4:	7100019f 	cmp	w12, #0x0
  4032c8:	900002e1 	adrp	x1, 45f000 <translit_from_idx+0x14b8>
  4032cc:	912d4021 	add	x1, x1, #0xb50
  4032d0:	9a800021 	csel	x1, x1, x0, eq  // eq = none
  4032d4:	17fffdcc 	b	402a04 <_nl_load_domain+0x37c>
  4032d8:	aa0703e1 	mov	x1, x7
  4032dc:	17fffdca 	b	402a04 <_nl_load_domain+0x37c>
  4032e0:	d2800001 	mov	x1, #0x0                   	// #0
  4032e4:	17fffdc8 	b	402a04 <_nl_load_domain+0x37c>
  4032e8:	d2800001 	mov	x1, #0x0                   	// #0
  4032ec:	17fffdc6 	b	402a04 <_nl_load_domain+0x37c>
  4032f0:	aa0703e1 	mov	x1, x7
  4032f4:	17fffdc4 	b	402a04 <_nl_load_domain+0x37c>
  4032f8:	7100da9f 	cmp	w20, #0x36
  4032fc:	54000341 	b.ne	403364 <_nl_load_domain+0xcdc>  // b.any
  403300:	39401401 	ldrb	w1, [x0, #5]
  403304:	7100d03f 	cmp	w1, #0x34
  403308:	54000060 	b.eq	403314 <_nl_load_domain+0xc8c>  // b.none
  40330c:	d2800001 	mov	x1, #0x0                   	// #0
  403310:	17fffdbd 	b	402a04 <_nl_load_domain+0x37c>
  403314:	39401800 	ldrb	w0, [x0, #6]
  403318:	35000120 	cbnz	w0, 40333c <_nl_load_domain+0xcb4>
  40331c:	7101905f 	cmp	w2, #0x64
  403320:	540001e0 	b.eq	40335c <_nl_load_domain+0xcd4>  // b.none
  403324:	35000185 	cbnz	w5, 403354 <_nl_load_domain+0xccc>
  403328:	35000132 	cbnz	w18, 40334c <_nl_load_domain+0xcc4>
  40332c:	350000d1 	cbnz	w17, 403344 <_nl_load_domain+0xcbc>
  403330:	7100019f 	cmp	w12, #0x0
  403334:	9a890101 	csel	x1, x8, x9, eq  // eq = none
  403338:	17fffdb3 	b	402a04 <_nl_load_domain+0x37c>
  40333c:	d2800001 	mov	x1, #0x0                   	// #0
  403340:	17fffdb1 	b	402a04 <_nl_load_domain+0x37c>
  403344:	aa0d03e1 	mov	x1, x13
  403348:	17fffdaf 	b	402a04 <_nl_load_domain+0x37c>
  40334c:	aa0e03e1 	mov	x1, x14
  403350:	17fffdad 	b	402a04 <_nl_load_domain+0x37c>
  403354:	aa0f03e1 	mov	x1, x15
  403358:	17fffdab 	b	402a04 <_nl_load_domain+0x37c>
  40335c:	aa1003e1 	mov	x1, x16
  403360:	17fffda9 	b	402a04 <_nl_load_domain+0x37c>
  403364:	7101329f 	cmp	w20, #0x4c
  403368:	54000161 	b.ne	403394 <_nl_load_domain+0xd0c>  // b.any
  40336c:	39401401 	ldrb	w1, [x0, #5]
  403370:	7101143f 	cmp	w1, #0x45
  403374:	54000060 	b.eq	403380 <_nl_load_domain+0xcf8>  // b.none
  403378:	d2800001 	mov	x1, #0x0                   	// #0
  40337c:	17fffda2 	b	402a04 <_nl_load_domain+0x37c>
  403380:	39401801 	ldrb	w1, [x0, #6]
  403384:	7101043f 	cmp	w1, #0x41
  403388:	54001ce0 	b.eq	403724 <_nl_load_domain+0x109c>  // b.none
  40338c:	d2800001 	mov	x1, #0x0                   	// #0
  403390:	17fffd9d 	b	402a04 <_nl_load_domain+0x37c>
  403394:	71011a9f 	cmp	w20, #0x46
  403398:	54000161 	b.ne	4033c4 <_nl_load_domain+0xd3c>  // b.any
  40339c:	39401401 	ldrb	w1, [x0, #5]
  4033a0:	7101043f 	cmp	w1, #0x41
  4033a4:	54000060 	b.eq	4033b0 <_nl_load_domain+0xd28>  // b.none
  4033a8:	d2800001 	mov	x1, #0x0                   	// #0
  4033ac:	17fffd96 	b	402a04 <_nl_load_domain+0x37c>
  4033b0:	39401801 	ldrb	w1, [x0, #6]
  4033b4:	71014c3f 	cmp	w1, #0x53
  4033b8:	540004e0 	b.eq	403454 <_nl_load_domain+0xdcc>  // b.none
  4033bc:	d2800001 	mov	x1, #0x0                   	// #0
  4033c0:	17fffd91 	b	402a04 <_nl_load_domain+0x37c>
  4033c4:	7101369f 	cmp	w20, #0x4d
  4033c8:	54000161 	b.ne	4033f4 <_nl_load_domain+0xd6c>  // b.any
  4033cc:	39401401 	ldrb	w1, [x0, #5]
  4033d0:	7101043f 	cmp	w1, #0x41
  4033d4:	54000060 	b.eq	4033e0 <_nl_load_domain+0xd58>  // b.none
  4033d8:	d2800001 	mov	x1, #0x0                   	// #0
  4033dc:	17fffd8a 	b	402a04 <_nl_load_domain+0x37c>
  4033e0:	39401801 	ldrb	w1, [x0, #6]
  4033e4:	7101603f 	cmp	w1, #0x58
  4033e8:	54000400 	b.eq	403468 <_nl_load_domain+0xde0>  // b.none
  4033ec:	d2800001 	mov	x1, #0x0                   	// #0
  4033f0:	17fffd85 	b	402a04 <_nl_load_domain+0x37c>
  4033f4:	7101429f 	cmp	w20, #0x50
  4033f8:	54000161 	b.ne	403424 <_nl_load_domain+0xd9c>  // b.any
  4033fc:	39401401 	ldrb	w1, [x0, #5]
  403400:	7101503f 	cmp	w1, #0x54
  403404:	54000060 	b.eq	403410 <_nl_load_domain+0xd88>  // b.none
  403408:	d2800001 	mov	x1, #0x0                   	// #0
  40340c:	17fffd7e 	b	402a04 <_nl_load_domain+0x37c>
  403410:	39401801 	ldrb	w1, [x0, #6]
  403414:	7101483f 	cmp	w1, #0x52
  403418:	540000a0 	b.eq	40342c <_nl_load_domain+0xda4>  // b.none
  40341c:	d2800001 	mov	x1, #0x0                   	// #0
  403420:	17fffd79 	b	402a04 <_nl_load_domain+0x37c>
  403424:	d2800001 	mov	x1, #0x0                   	// #0
  403428:	17fffd77 	b	402a04 <_nl_load_domain+0x37c>
  40342c:	39401c00 	ldrb	w0, [x0, #7]
  403430:	350012e0 	cbnz	w0, 40368c <_nl_load_domain+0x1004>
  403434:	7101905f 	cmp	w2, #0x64
  403438:	54001260 	b.eq	403684 <_nl_load_domain+0xffc>  // b.none
  40343c:	35001205 	cbnz	w5, 40367c <_nl_load_domain+0xff4>
  403440:	350011b2 	cbnz	w18, 403674 <_nl_load_domain+0xfec>
  403444:	35000271 	cbnz	w17, 403490 <_nl_load_domain+0xe08>
  403448:	7100019f 	cmp	w12, #0x0
  40344c:	9a890101 	csel	x1, x8, x9, eq  // eq = none
  403450:	17fffd6d 	b	402a04 <_nl_load_domain+0x37c>
  403454:	39401c01 	ldrb	w1, [x0, #7]
  403458:	7101503f 	cmp	w1, #0x54
  40345c:	540001e0 	b.eq	403498 <_nl_load_domain+0xe10>  // b.none
  403460:	d2800001 	mov	x1, #0x0                   	// #0
  403464:	17fffd68 	b	402a04 <_nl_load_domain+0x37c>
  403468:	39401c00 	ldrb	w0, [x0, #7]
  40346c:	35001000 	cbnz	w0, 40366c <_nl_load_domain+0xfe4>
  403470:	7101905f 	cmp	w2, #0x64
  403474:	54000f80 	b.eq	403664 <_nl_load_domain+0xfdc>  // b.none
  403478:	35000f25 	cbnz	w5, 40365c <_nl_load_domain+0xfd4>
  40347c:	35000ed2 	cbnz	w18, 403654 <_nl_load_domain+0xfcc>
  403480:	35000231 	cbnz	w17, 4034c4 <_nl_load_domain+0xe3c>
  403484:	7100019f 	cmp	w12, #0x0
  403488:	9a890101 	csel	x1, x8, x9, eq  // eq = none
  40348c:	17fffd5e 	b	402a04 <_nl_load_domain+0x37c>
  403490:	aa0d03e1 	mov	x1, x13
  403494:	17fffd5c 	b	402a04 <_nl_load_domain+0x37c>
  403498:	39402001 	ldrb	w1, [x0, #8]
  40349c:	7100e03f 	cmp	w1, #0x38
  4034a0:	54000840 	b.eq	4035a8 <_nl_load_domain+0xf20>  // b.none
  4034a4:	7100c43f 	cmp	w1, #0x31
  4034a8:	54000760 	b.eq	403594 <_nl_load_domain+0xf0c>  // b.none
  4034ac:	7100cc3f 	cmp	w1, #0x33
  4034b0:	54000180 	b.eq	4034e0 <_nl_load_domain+0xe58>  // b.none
  4034b4:	7100d83f 	cmp	w1, #0x36
  4034b8:	540000a0 	b.eq	4034cc <_nl_load_domain+0xe44>  // b.none
  4034bc:	d2800001 	mov	x1, #0x0                   	// #0
  4034c0:	17fffd51 	b	402a04 <_nl_load_domain+0x37c>
  4034c4:	aa0d03e1 	mov	x1, x13
  4034c8:	17fffd4f 	b	402a04 <_nl_load_domain+0x37c>
  4034cc:	39402401 	ldrb	w1, [x0, #9]
  4034d0:	7100d03f 	cmp	w1, #0x34
  4034d4:	54000100 	b.eq	4034f4 <_nl_load_domain+0xe6c>  // b.none
  4034d8:	d2800001 	mov	x1, #0x0                   	// #0
  4034dc:	17fffd4a 	b	402a04 <_nl_load_domain+0x37c>
  4034e0:	39402401 	ldrb	w1, [x0, #9]
  4034e4:	7100c83f 	cmp	w1, #0x32
  4034e8:	540001a0 	b.eq	40351c <_nl_load_domain+0xe94>  // b.none
  4034ec:	d2800001 	mov	x1, #0x0                   	// #0
  4034f0:	17fffd45 	b	402a04 <_nl_load_domain+0x37c>
  4034f4:	39402800 	ldrb	w0, [x0, #10]
  4034f8:	350004a0 	cbnz	w0, 40358c <_nl_load_domain+0xf04>
  4034fc:	7101905f 	cmp	w2, #0x64
  403500:	54000420 	b.eq	403584 <_nl_load_domain+0xefc>  // b.none
  403504:	350003c5 	cbnz	w5, 40357c <_nl_load_domain+0xef4>
  403508:	35000372 	cbnz	w18, 403574 <_nl_load_domain+0xeec>
  40350c:	350001d1 	cbnz	w17, 403544 <_nl_load_domain+0xebc>
  403510:	7100019f 	cmp	w12, #0x0
  403514:	9a890101 	csel	x1, x8, x9, eq  // eq = none
  403518:	17fffd3b 	b	402a04 <_nl_load_domain+0x37c>
  40351c:	39402800 	ldrb	w0, [x0, #10]
  403520:	35000260 	cbnz	w0, 40356c <_nl_load_domain+0xee4>
  403524:	7101905f 	cmp	w2, #0x64
  403528:	540001e0 	b.eq	403564 <_nl_load_domain+0xedc>  // b.none
  40352c:	35000185 	cbnz	w5, 40355c <_nl_load_domain+0xed4>
  403530:	35000132 	cbnz	w18, 403554 <_nl_load_domain+0xecc>
  403534:	350000d1 	cbnz	w17, 40354c <_nl_load_domain+0xec4>
  403538:	7100019f 	cmp	w12, #0x0
  40353c:	9a890101 	csel	x1, x8, x9, eq  // eq = none
  403540:	17fffd31 	b	402a04 <_nl_load_domain+0x37c>
  403544:	aa0d03e1 	mov	x1, x13
  403548:	17fffd2f 	b	402a04 <_nl_load_domain+0x37c>
  40354c:	aa0d03e1 	mov	x1, x13
  403550:	17fffd2d 	b	402a04 <_nl_load_domain+0x37c>
  403554:	aa0e03e1 	mov	x1, x14
  403558:	17fffd2b 	b	402a04 <_nl_load_domain+0x37c>
  40355c:	aa0f03e1 	mov	x1, x15
  403560:	17fffd29 	b	402a04 <_nl_load_domain+0x37c>
  403564:	aa1003e1 	mov	x1, x16
  403568:	17fffd27 	b	402a04 <_nl_load_domain+0x37c>
  40356c:	d2800001 	mov	x1, #0x0                   	// #0
  403570:	17fffd25 	b	402a04 <_nl_load_domain+0x37c>
  403574:	aa0e03e1 	mov	x1, x14
  403578:	17fffd23 	b	402a04 <_nl_load_domain+0x37c>
  40357c:	aa0f03e1 	mov	x1, x15
  403580:	17fffd21 	b	402a04 <_nl_load_domain+0x37c>
  403584:	aa1003e1 	mov	x1, x16
  403588:	17fffd1f 	b	402a04 <_nl_load_domain+0x37c>
  40358c:	d2800001 	mov	x1, #0x0                   	// #0
  403590:	17fffd1d 	b	402a04 <_nl_load_domain+0x37c>
  403594:	39402401 	ldrb	w1, [x0, #9]
  403598:	7100d83f 	cmp	w1, #0x36
  40359c:	54000200 	b.eq	4035dc <_nl_load_domain+0xf54>  // b.none
  4035a0:	d2800001 	mov	x1, #0x0                   	// #0
  4035a4:	17fffd18 	b	402a04 <_nl_load_domain+0x37c>
  4035a8:	39402400 	ldrb	w0, [x0, #9]
  4035ac:	35000500 	cbnz	w0, 40364c <_nl_load_domain+0xfc4>
  4035b0:	7101905f 	cmp	w2, #0x64
  4035b4:	54000480 	b.eq	403644 <_nl_load_domain+0xfbc>  // b.none
  4035b8:	35000425 	cbnz	w5, 40363c <_nl_load_domain+0xfb4>
  4035bc:	350003d2 	cbnz	w18, 403634 <_nl_load_domain+0xfac>
  4035c0:	35000231 	cbnz	w17, 403604 <_nl_load_domain+0xf7c>
  4035c4:	f94067a0 	ldr	x0, [x29, #200]
  4035c8:	7100019f 	cmp	w12, #0x0
  4035cc:	900002e1 	adrp	x1, 45f000 <translit_from_idx+0x14b8>
  4035d0:	912d4021 	add	x1, x1, #0xb50
  4035d4:	9a800021 	csel	x1, x1, x0, eq  // eq = none
  4035d8:	17fffd0b 	b	402a04 <_nl_load_domain+0x37c>
  4035dc:	39402800 	ldrb	w0, [x0, #10]
  4035e0:	35000260 	cbnz	w0, 40362c <_nl_load_domain+0xfa4>
  4035e4:	7101905f 	cmp	w2, #0x64
  4035e8:	540001e0 	b.eq	403624 <_nl_load_domain+0xf9c>  // b.none
  4035ec:	35000185 	cbnz	w5, 40361c <_nl_load_domain+0xf94>
  4035f0:	35000132 	cbnz	w18, 403614 <_nl_load_domain+0xf8c>
  4035f4:	350000d1 	cbnz	w17, 40360c <_nl_load_domain+0xf84>
  4035f8:	7100019f 	cmp	w12, #0x0
  4035fc:	9a890101 	csel	x1, x8, x9, eq  // eq = none
  403600:	17fffd01 	b	402a04 <_nl_load_domain+0x37c>
  403604:	f9406ba1 	ldr	x1, [x29, #208]
  403608:	17fffcff 	b	402a04 <_nl_load_domain+0x37c>
  40360c:	aa0d03e1 	mov	x1, x13
  403610:	17fffcfd 	b	402a04 <_nl_load_domain+0x37c>
  403614:	aa0e03e1 	mov	x1, x14
  403618:	17fffcfb 	b	402a04 <_nl_load_domain+0x37c>
  40361c:	aa0f03e1 	mov	x1, x15
  403620:	17fffcf9 	b	402a04 <_nl_load_domain+0x37c>
  403624:	aa1003e1 	mov	x1, x16
  403628:	17fffcf7 	b	402a04 <_nl_load_domain+0x37c>
  40362c:	d2800001 	mov	x1, #0x0                   	// #0
  403630:	17fffcf5 	b	402a04 <_nl_load_domain+0x37c>
  403634:	aa1e03e1 	mov	x1, x30
  403638:	17fffcf3 	b	402a04 <_nl_load_domain+0x37c>
  40363c:	aa0603e1 	mov	x1, x6
  403640:	17fffcf1 	b	402a04 <_nl_load_domain+0x37c>
  403644:	aa0703e1 	mov	x1, x7
  403648:	17fffcef 	b	402a04 <_nl_load_domain+0x37c>
  40364c:	d2800001 	mov	x1, #0x0                   	// #0
  403650:	17fffced 	b	402a04 <_nl_load_domain+0x37c>
  403654:	aa0e03e1 	mov	x1, x14
  403658:	17fffceb 	b	402a04 <_nl_load_domain+0x37c>
  40365c:	aa0f03e1 	mov	x1, x15
  403660:	17fffce9 	b	402a04 <_nl_load_domain+0x37c>
  403664:	aa1003e1 	mov	x1, x16
  403668:	17fffce7 	b	402a04 <_nl_load_domain+0x37c>
  40366c:	d2800001 	mov	x1, #0x0                   	// #0
  403670:	17fffce5 	b	402a04 <_nl_load_domain+0x37c>
  403674:	aa0e03e1 	mov	x1, x14
  403678:	17fffce3 	b	402a04 <_nl_load_domain+0x37c>
  40367c:	aa0f03e1 	mov	x1, x15
  403680:	17fffce1 	b	402a04 <_nl_load_domain+0x37c>
  403684:	aa1003e1 	mov	x1, x16
  403688:	17fffcdf 	b	402a04 <_nl_load_domain+0x37c>
  40368c:	d2800001 	mov	x1, #0x0                   	// #0
  403690:	17fffcdd 	b	402a04 <_nl_load_domain+0x37c>
  403694:	aa1e03e1 	mov	x1, x30
  403698:	17fffcdb 	b	402a04 <_nl_load_domain+0x37c>
  40369c:	aa0603e1 	mov	x1, x6
  4036a0:	17fffcd9 	b	402a04 <_nl_load_domain+0x37c>
  4036a4:	b87378a0 	ldr	w0, [x5, x19, lsl #2]
  4036a8:	17fffe3b 	b	402f94 <_nl_load_domain+0x90c>
  4036ac:	f9406ba1 	ldr	x1, [x29, #208]
  4036b0:	17fffcd5 	b	402a04 <_nl_load_domain+0x37c>
  4036b4:	9400078f 	bl	4054f0 <abort>
  4036b8:	b87378a0 	ldr	w0, [x5, x19, lsl #2]
  4036bc:	17fffeaa 	b	403164 <_nl_load_domain+0xadc>
  4036c0:	f94053a0 	ldr	x0, [x29, #160]
  4036c4:	52800038 	mov	w24, #0x1                   	// #1
  4036c8:	b940181c 	ldr	w28, [x0, #24]
  4036cc:	17fffe47 	b	402fe8 <_nl_load_domain+0x960>
  4036d0:	f9405ba0 	ldr	x0, [x29, #176]
  4036d4:	f94067b7 	ldr	x23, [x29, #200]
  4036d8:	b8747801 	ldr	w1, [x0, x20, lsl #2]
  4036dc:	8b010340 	add	x0, x26, x1
  4036e0:	b8616b55 	ldr	w21, [x26, x1]
  4036e4:	8b150355 	add	x21, x26, x21
  4036e8:	17fffeae 	b	4031a0 <_nl_load_domain+0xb18>
  4036ec:	f9406ba1 	ldr	x1, [x29, #208]
  4036f0:	17fffcc5 	b	402a04 <_nl_load_domain+0x37c>
  4036f4:	aa1e03e1 	mov	x1, x30
  4036f8:	17fffcc3 	b	402a04 <_nl_load_domain+0x37c>
  4036fc:	aa0603e1 	mov	x1, x6
  403700:	17fffcc1 	b	402a04 <_nl_load_domain+0x37c>
  403704:	f9406ba1 	ldr	x1, [x29, #208]
  403708:	17fffcbf 	b	402a04 <_nl_load_domain+0x37c>
  40370c:	aa1e03e1 	mov	x1, x30
  403710:	17fffcbd 	b	402a04 <_nl_load_domain+0x37c>
  403714:	aa0603e1 	mov	x1, x6
  403718:	17fffcbb 	b	402a04 <_nl_load_domain+0x37c>
  40371c:	aa0703e1 	mov	x1, x7
  403720:	17fffcb9 	b	402a04 <_nl_load_domain+0x37c>
  403724:	39401c01 	ldrb	w1, [x0, #7]
  403728:	71014c3f 	cmp	w1, #0x53
  40372c:	54000060 	b.eq	403738 <_nl_load_domain+0x10b0>  // b.none
  403730:	d2800001 	mov	x1, #0x0                   	// #0
  403734:	17fffcb4 	b	402a04 <_nl_load_domain+0x37c>
  403738:	39402001 	ldrb	w1, [x0, #8]
  40373c:	7101503f 	cmp	w1, #0x54
  403740:	54000060 	b.eq	40374c <_nl_load_domain+0x10c4>  // b.none
  403744:	d2800001 	mov	x1, #0x0                   	// #0
  403748:	17fffcaf 	b	402a04 <_nl_load_domain+0x37c>
  40374c:	39402401 	ldrb	w1, [x0, #9]
  403750:	7100e03f 	cmp	w1, #0x38
  403754:	54000120 	b.eq	403778 <_nl_load_domain+0x10f0>  // b.none
  403758:	7100c43f 	cmp	w1, #0x31
  40375c:	54000780 	b.eq	40384c <_nl_load_domain+0x11c4>  // b.none
  403760:	7100cc3f 	cmp	w1, #0x33
  403764:	540006a0 	b.eq	403838 <_nl_load_domain+0x11b0>  // b.none
  403768:	7100d83f 	cmp	w1, #0x36
  40376c:	54000200 	b.eq	4037ac <_nl_load_domain+0x1124>  // b.none
  403770:	d2800001 	mov	x1, #0x0                   	// #0
  403774:	17fffca4 	b	402a04 <_nl_load_domain+0x37c>
  403778:	39402800 	ldrb	w0, [x0, #10]
  40377c:	350005a0 	cbnz	w0, 403830 <_nl_load_domain+0x11a8>
  403780:	7101905f 	cmp	w2, #0x64
  403784:	54000520 	b.eq	403828 <_nl_load_domain+0x11a0>  // b.none
  403788:	35000385 	cbnz	w5, 4037f8 <_nl_load_domain+0x1170>
  40378c:	35000332 	cbnz	w18, 4037f0 <_nl_load_domain+0x1168>
  403790:	35000191 	cbnz	w17, 4037c0 <_nl_load_domain+0x1138>
  403794:	f94067a0 	ldr	x0, [x29, #200]
  403798:	7100019f 	cmp	w12, #0x0
  40379c:	900002e1 	adrp	x1, 45f000 <translit_from_idx+0x14b8>
  4037a0:	912d4021 	add	x1, x1, #0xb50
  4037a4:	9a800021 	csel	x1, x1, x0, eq  // eq = none
  4037a8:	17fffc97 	b	402a04 <_nl_load_domain+0x37c>
  4037ac:	39402801 	ldrb	w1, [x0, #10]
  4037b0:	7100d03f 	cmp	w1, #0x34
  4037b4:	540000a0 	b.eq	4037c8 <_nl_load_domain+0x1140>  // b.none
  4037b8:	d2800001 	mov	x1, #0x0                   	// #0
  4037bc:	17fffc92 	b	402a04 <_nl_load_domain+0x37c>
  4037c0:	f9406ba1 	ldr	x1, [x29, #208]
  4037c4:	17fffc90 	b	402a04 <_nl_load_domain+0x37c>
  4037c8:	39402c00 	ldrb	w0, [x0, #11]
  4037cc:	350002a0 	cbnz	w0, 403820 <_nl_load_domain+0x1198>
  4037d0:	7101905f 	cmp	w2, #0x64
  4037d4:	54000220 	b.eq	403818 <_nl_load_domain+0x1190>  // b.none
  4037d8:	350001c5 	cbnz	w5, 403810 <_nl_load_domain+0x1188>
  4037dc:	35000172 	cbnz	w18, 403808 <_nl_load_domain+0x1180>
  4037e0:	35000111 	cbnz	w17, 403800 <_nl_load_domain+0x1178>
  4037e4:	7100019f 	cmp	w12, #0x0
  4037e8:	9a890101 	csel	x1, x8, x9, eq  // eq = none
  4037ec:	17fffc86 	b	402a04 <_nl_load_domain+0x37c>
  4037f0:	aa1e03e1 	mov	x1, x30
  4037f4:	17fffc84 	b	402a04 <_nl_load_domain+0x37c>
  4037f8:	aa0603e1 	mov	x1, x6
  4037fc:	17fffc82 	b	402a04 <_nl_load_domain+0x37c>
  403800:	aa0d03e1 	mov	x1, x13
  403804:	17fffc80 	b	402a04 <_nl_load_domain+0x37c>
  403808:	aa0e03e1 	mov	x1, x14
  40380c:	17fffc7e 	b	402a04 <_nl_load_domain+0x37c>
  403810:	aa0f03e1 	mov	x1, x15
  403814:	17fffc7c 	b	402a04 <_nl_load_domain+0x37c>
  403818:	aa1003e1 	mov	x1, x16
  40381c:	17fffc7a 	b	402a04 <_nl_load_domain+0x37c>
  403820:	d2800001 	mov	x1, #0x0                   	// #0
  403824:	17fffc78 	b	402a04 <_nl_load_domain+0x37c>
  403828:	aa0703e1 	mov	x1, x7
  40382c:	17fffc76 	b	402a04 <_nl_load_domain+0x37c>
  403830:	d2800001 	mov	x1, #0x0                   	// #0
  403834:	17fffc74 	b	402a04 <_nl_load_domain+0x37c>
  403838:	39402801 	ldrb	w1, [x0, #10]
  40383c:	7100c83f 	cmp	w1, #0x32
  403840:	54000100 	b.eq	403860 <_nl_load_domain+0x11d8>  // b.none
  403844:	d2800001 	mov	x1, #0x0                   	// #0
  403848:	17fffc6f 	b	402a04 <_nl_load_domain+0x37c>
  40384c:	39402801 	ldrb	w1, [x0, #10]
  403850:	7100d83f 	cmp	w1, #0x36
  403854:	54000200 	b.eq	403894 <_nl_load_domain+0x120c>  // b.none
  403858:	d2800001 	mov	x1, #0x0                   	// #0
  40385c:	17fffc6a 	b	402a04 <_nl_load_domain+0x37c>
  403860:	39402c00 	ldrb	w0, [x0, #11]
  403864:	35000560 	cbnz	w0, 403910 <_nl_load_domain+0x1288>
  403868:	7101905f 	cmp	w2, #0x64
  40386c:	540004e0 	b.eq	403908 <_nl_load_domain+0x1280>  // b.none
  403870:	35000485 	cbnz	w5, 403900 <_nl_load_domain+0x1278>
  403874:	35000432 	cbnz	w18, 4038f8 <_nl_load_domain+0x1270>
  403878:	35000291 	cbnz	w17, 4038c8 <_nl_load_domain+0x1240>
  40387c:	f94067a0 	ldr	x0, [x29, #200]
  403880:	7100019f 	cmp	w12, #0x0
  403884:	900002e1 	adrp	x1, 45f000 <translit_from_idx+0x14b8>
  403888:	912d4021 	add	x1, x1, #0xb50
  40388c:	9a800021 	csel	x1, x1, x0, eq  // eq = none
  403890:	17fffc5d 	b	402a04 <_nl_load_domain+0x37c>
  403894:	39402c00 	ldrb	w0, [x0, #11]
  403898:	350002c0 	cbnz	w0, 4038f0 <_nl_load_domain+0x1268>
  40389c:	7101905f 	cmp	w2, #0x64
  4038a0:	54000240 	b.eq	4038e8 <_nl_load_domain+0x1260>  // b.none
  4038a4:	350001e5 	cbnz	w5, 4038e0 <_nl_load_domain+0x1258>
  4038a8:	35000192 	cbnz	w18, 4038d8 <_nl_load_domain+0x1250>
  4038ac:	35000131 	cbnz	w17, 4038d0 <_nl_load_domain+0x1248>
  4038b0:	f94067a0 	ldr	x0, [x29, #200]
  4038b4:	7100019f 	cmp	w12, #0x0
  4038b8:	900002e1 	adrp	x1, 45f000 <translit_from_idx+0x14b8>
  4038bc:	912d4021 	add	x1, x1, #0xb50
  4038c0:	9a800021 	csel	x1, x1, x0, eq  // eq = none
  4038c4:	17fffc50 	b	402a04 <_nl_load_domain+0x37c>
  4038c8:	f9406ba1 	ldr	x1, [x29, #208]
  4038cc:	17fffc4e 	b	402a04 <_nl_load_domain+0x37c>
  4038d0:	f9406ba1 	ldr	x1, [x29, #208]
  4038d4:	17fffc4c 	b	402a04 <_nl_load_domain+0x37c>
  4038d8:	aa1e03e1 	mov	x1, x30
  4038dc:	17fffc4a 	b	402a04 <_nl_load_domain+0x37c>
  4038e0:	aa0603e1 	mov	x1, x6
  4038e4:	17fffc48 	b	402a04 <_nl_load_domain+0x37c>
  4038e8:	aa0703e1 	mov	x1, x7
  4038ec:	17fffc46 	b	402a04 <_nl_load_domain+0x37c>
  4038f0:	d2800001 	mov	x1, #0x0                   	// #0
  4038f4:	17fffc44 	b	402a04 <_nl_load_domain+0x37c>
  4038f8:	aa1e03e1 	mov	x1, x30
  4038fc:	17fffc42 	b	402a04 <_nl_load_domain+0x37c>
  403900:	aa0603e1 	mov	x1, x6
  403904:	17fffc40 	b	402a04 <_nl_load_domain+0x37c>
  403908:	aa0703e1 	mov	x1, x7
  40390c:	17fffc3e 	b	402a04 <_nl_load_domain+0x37c>
  403910:	d2800001 	mov	x1, #0x0                   	// #0
  403914:	17fffc3c 	b	402a04 <_nl_load_domain+0x37c>

0000000000403918 <alias_compare>:
  403918:	f9400000 	ldr	x0, [x0]
  40391c:	900002e2 	adrp	x2, 45f000 <translit_from_idx+0x14b8>
  403920:	f9400021 	ldr	x1, [x1]
  403924:	9104a042 	add	x2, x2, #0x128
  403928:	14004946 	b	415e40 <__strcasecmp_l>
  40392c:	d503201f 	nop

0000000000403930 <read_alias_file>:
  403930:	d10903ff 	sub	sp, sp, #0x240
  403934:	93407c22 	sxtw	x2, w1
  403938:	9100b043 	add	x3, x2, #0x2c
  40393c:	d00003c1 	adrp	x1, 47d000 <__FRAME_END__+0xf8fc>
  403940:	927cec63 	and	x3, x3, #0xfffffffffffffff0
  403944:	91286024 	add	x4, x1, #0xa18
  403948:	a9007bfd 	stp	x29, x30, [sp]
  40394c:	910003fd 	mov	x29, sp
  403950:	aa0003e1 	mov	x1, x0
  403954:	f9400080 	ldr	x0, [x4]
  403958:	f9011fa0 	str	x0, [x29, #568]
  40395c:	d2800000 	mov	x0, #0x0                   	// #0
  403960:	a90153f3 	stp	x19, x20, [sp, #16]
  403964:	a9025bf5 	stp	x21, x22, [sp, #32]
  403968:	a90363f7 	stp	x23, x24, [sp, #48]
  40396c:	d2800018 	mov	x24, #0x0                   	// #0
  403970:	a9046bf9 	stp	x25, x26, [sp, #64]
  403974:	a90573fb 	stp	x27, x28, [sp, #80]
  403978:	cb2363ff 	sub	sp, sp, x3
  40397c:	910003f3 	mov	x19, sp
  403980:	aa1303e0 	mov	x0, x19
  403984:	940048a7 	bl	415c20 <__mempcpy>
  403988:	90000262 	adrp	x2, 44f000 <free_slotinfo+0x8>
  40398c:	911a8042 	add	x2, x2, #0x6a0
  403990:	aa0003e3 	mov	x3, x0
  403994:	90000261 	adrp	x1, 44f000 <free_slotinfo+0x8>
  403998:	aa1303e0 	mov	x0, x19
  40399c:	911a6021 	add	x1, x1, #0x698
  4039a0:	f9400044 	ldr	x4, [x2]
  4039a4:	f8406042 	ldur	x2, [x2, #6]
  4039a8:	f9000064 	str	x4, [x3]
  4039ac:	f8006062 	stur	x2, [x3, #6]
  4039b0:	94000eb6 	bl	407488 <_IO_new_fopen>
  4039b4:	b4000540 	cbz	x0, 403a5c <read_alias_file+0x12c>
  4039b8:	b9400001 	ldr	w1, [x0]
  4039bc:	aa0003f4 	mov	x20, x0
  4039c0:	32110022 	orr	w2, w1, #0x8000
  4039c4:	b9000002 	str	w2, [x0]
  4039c8:	37201ac1 	tbnz	w1, #4, 403d20 <read_alias_file+0x3f0>
  4039cc:	d00003c0 	adrp	x0, 47d000 <__FRAME_END__+0xf8fc>
  4039d0:	f947d400 	ldr	x0, [x0, #4008]
  4039d4:	d53bd055 	mrs	x21, tpidr_el0
  4039d8:	900003f6 	adrp	x22, 47f000 <main_arena+0x868>
  4039dc:	913f62d6 	add	x22, x22, #0xfd8
  4039e0:	8b0002b5 	add	x21, x21, x0
  4039e4:	d503201f 	nop
  4039e8:	aa1403e2 	mov	x2, x20
  4039ec:	52803201 	mov	w1, #0x190                 	// #400
  4039f0:	9102a3a0 	add	x0, x29, #0xa8
  4039f4:	94001633 	bl	4092c0 <__fgets_unlocked>
  4039f8:	b40002c0 	cbz	x0, 403a50 <read_alias_file+0x120>
  4039fc:	52800141 	mov	w1, #0xa                   	// #10
  403a00:	9102a3a0 	add	x0, x29, #0xa8
  403a04:	94004393 	bl	414850 <strchr>
  403a08:	aa0003fa 	mov	x26, x0
  403a0c:	3942a3a0 	ldrb	w0, [x29, #168]
  403a10:	9102a3b3 	add	x19, x29, #0xa8
  403a14:	f94002a1 	ldr	x1, [x21]
  403a18:	d37f1c02 	ubfiz	x2, x0, #1, #8
  403a1c:	78626822 	ldrh	w2, [x1, x2]
  403a20:	366800c2 	tbz	w2, #13, 403a38 <read_alias_file+0x108>
  403a24:	d503201f 	nop
  403a28:	38401e60 	ldrb	w0, [x19, #1]!
  403a2c:	d37f1c02 	ubfiz	x2, x0, #1, #8
  403a30:	78626822 	ldrh	w2, [x1, x2]
  403a34:	376fffa2 	tbnz	w2, #13, 403a28 <read_alias_file+0xf8>
  403a38:	71008c1f 	cmp	w0, #0x23
  403a3c:	7a401804 	ccmp	w0, #0x0, #0x4, ne  // ne = any
  403a40:	54000421 	b.ne	403ac4 <read_alias_file+0x194>  // b.any
  403a44:	b400035a 	cbz	x26, 403aac <read_alias_file+0x17c>
  403a48:	b9400280 	ldr	w0, [x20]
  403a4c:	3627fce0 	tbz	w0, #4, 4039e8 <read_alias_file+0xb8>
  403a50:	aa1403e0 	mov	x0, x20
  403a54:	94000d37 	bl	406f30 <_IO_new_fclose>
  403a58:	b5001158 	cbnz	x24, 403c80 <read_alias_file+0x350>
  403a5c:	d00003c0 	adrp	x0, 47d000 <__FRAME_END__+0xf8fc>
  403a60:	91286017 	add	x23, x0, #0xa18
  403a64:	f9411fa2 	ldr	x2, [x29, #568]
  403a68:	f94002e1 	ldr	x1, [x23]
  403a6c:	ca010041 	eor	x1, x2, x1
  403a70:	aa1803e0 	mov	x0, x24
  403a74:	b50015a1 	cbnz	x1, 403d28 <read_alias_file+0x3f8>
  403a78:	910003bf 	mov	sp, x29
  403a7c:	a9407bfd 	ldp	x29, x30, [sp]
  403a80:	a94153f3 	ldp	x19, x20, [sp, #16]
  403a84:	a9425bf5 	ldp	x21, x22, [sp, #32]
  403a88:	a94363f7 	ldp	x23, x24, [sp, #48]
  403a8c:	a9446bf9 	ldp	x25, x26, [sp, #64]
  403a90:	a94573fb 	ldp	x27, x28, [sp, #80]
  403a94:	910903ff 	add	sp, sp, #0x240
  403a98:	d65f03c0 	ret
  403a9c:	52800141 	mov	w1, #0xa                   	// #10
  403aa0:	9102a3a0 	add	x0, x29, #0xa8
  403aa4:	9400436b 	bl	414850 <strchr>
  403aa8:	b5fffd00 	cbnz	x0, 403a48 <read_alias_file+0x118>
  403aac:	aa1403e2 	mov	x2, x20
  403ab0:	52803201 	mov	w1, #0x190                 	// #400
  403ab4:	9102a3a0 	add	x0, x29, #0xa8
  403ab8:	94001602 	bl	4092c0 <__fgets_unlocked>
  403abc:	b5ffff00 	cbnz	x0, 403a9c <read_alias_file+0x16c>
  403ac0:	17ffffe2 	b	403a48 <read_alias_file+0x118>
  403ac4:	39400662 	ldrb	w2, [x19, #1]
  403ac8:	91000663 	add	x3, x19, #0x1
  403acc:	d37f1c40 	ubfiz	x0, x2, #1, #8
  403ad0:	78606820 	ldrh	w0, [x1, x0]
  403ad4:	12130000 	and	w0, w0, #0x2000
  403ad8:	34000102 	cbz	w2, 403af8 <read_alias_file+0x1c8>
  403adc:	d503201f 	nop
  403ae0:	350008e0 	cbnz	w0, 403bfc <read_alias_file+0x2cc>
  403ae4:	38401c62 	ldrb	w2, [x3, #1]!
  403ae8:	d37f1c40 	ubfiz	x0, x2, #1, #8
  403aec:	78606820 	ldrh	w0, [x1, x0]
  403af0:	12130000 	and	w0, w0, #0x2000
  403af4:	35ffff62 	cbnz	w2, 403ae0 <read_alias_file+0x1b0>
  403af8:	aa0303f9 	mov	x25, x3
  403afc:	34fffa40 	cbz	w0, 403a44 <read_alias_file+0x114>
  403b00:	38401f20 	ldrb	w0, [x25, #1]!
  403b04:	d37f1c02 	ubfiz	x2, x0, #1, #8
  403b08:	78626822 	ldrh	w2, [x1, x2]
  403b0c:	376fffa2 	tbnz	w2, #13, 403b00 <read_alias_file+0x1d0>
  403b10:	34fff9a0 	cbz	w0, 403a44 <read_alias_file+0x114>
  403b14:	39400720 	ldrb	w0, [x25, #1]
  403b18:	91000722 	add	x2, x25, #0x1
  403b1c:	35000080 	cbnz	w0, 403b2c <read_alias_file+0x1fc>
  403b20:	1400000a 	b	403b48 <read_alias_file+0x218>
  403b24:	38401c40 	ldrb	w0, [x2, #1]!
  403b28:	34000100 	cbz	w0, 403b48 <read_alias_file+0x218>
  403b2c:	d37f1c03 	ubfiz	x3, x0, #1, #8
  403b30:	78636823 	ldrh	w3, [x1, x3]
  403b34:	366fff83 	tbz	w3, #13, 403b24 <read_alias_file+0x1f4>
  403b38:	7100281f 	cmp	w0, #0xa
  403b3c:	54000c81 	b.ne	403ccc <read_alias_file+0x39c>  // b.any
  403b40:	52814000 	mov	w0, #0xa00                 	// #2560
  403b44:	79000040 	strh	w0, [x2]
  403b48:	a94002db 	ldp	x27, x0, [x22]
  403b4c:	f0000bf7 	adrp	x23, 582000 <__gconv_path_elem>
  403b50:	eb00037f 	cmp	x27, x0
  403b54:	54000a82 	b.cs	403ca4 <read_alias_file+0x374>  // b.hs, b.nlast
  403b58:	aa1303e0 	mov	x0, x19
  403b5c:	94004499 	bl	414dc0 <__strlen>
  403b60:	91000402 	add	x2, x0, #0x1
  403b64:	aa1903e0 	mov	x0, x25
  403b68:	f9004fa2 	str	x2, [x29, #152]
  403b6c:	94004495 	bl	414dc0 <__strlen>
  403b70:	91000406 	add	x6, x0, #0x1
  403b74:	a94102ca 	ldp	x10, x0, [x22, #16]
  403b78:	910202e4 	add	x4, x23, #0x80
  403b7c:	f9404fa2 	ldr	x2, [x29, #152]
  403b80:	8b020149 	add	x9, x10, x2
  403b84:	f940049c 	ldr	x28, [x4, #8]
  403b88:	8b060128 	add	x8, x9, x6
  403b8c:	eb00011f 	cmp	x8, x0
  403b90:	54000469 	b.ls	403c1c <read_alias_file+0x2ec>  // b.plast
  403b94:	8b060041 	add	x1, x2, x6
  403b98:	d2808005 	mov	x5, #0x400                 	// #1024
  403b9c:	f110003f 	cmp	x1, #0x400
  403ba0:	a906a3a4 	stp	x4, x8, [x29, #104]
  403ba4:	9a852021 	csel	x1, x1, x5, cs  // cs = hs, nlast
  403ba8:	a907aba9 	stp	x9, x10, [x29, #120]
  403bac:	8b000025 	add	x5, x1, x0
  403bb0:	a9088ba6 	stp	x6, x2, [x29, #136]
  403bb4:	aa0503e1 	mov	x1, x5
  403bb8:	aa1c03e0 	mov	x0, x28
  403bbc:	f9004fa5 	str	x5, [x29, #152]
  403bc0:	94003ec6 	bl	4136d8 <__libc_realloc>
  403bc4:	b4fff460 	cbz	x0, 403a50 <read_alias_file+0x120>
  403bc8:	a946a3a4 	ldp	x4, x8, [x29, #104]
  403bcc:	eb1c001f 	cmp	x0, x28
  403bd0:	a947aba9 	ldp	x9, x10, [x29, #120]
  403bd4:	f9400087 	ldr	x7, [x4]
  403bd8:	d37cef64 	lsl	x4, x27, #4
  403bdc:	a9488ba6 	ldp	x6, x2, [x29, #136]
  403be0:	f9404fa5 	ldr	x5, [x29, #152]
  403be4:	540007e1 	b.ne	403ce0 <read_alias_file+0x3b0>  // b.any
  403be8:	910202e3 	add	x3, x23, #0x80
  403bec:	aa0003fc 	mov	x28, x0
  403bf0:	f9000ec5 	str	x5, [x22, #24]
  403bf4:	f9000460 	str	x0, [x3, #8]
  403bf8:	1400000b 	b	403c24 <read_alias_file+0x2f4>
  403bfc:	39400460 	ldrb	w0, [x3, #1]
  403c00:	91000479 	add	x25, x3, #0x1
  403c04:	3900007f 	strb	wzr, [x3]
  403c08:	d37f1c02 	ubfiz	x2, x0, #1, #8
  403c0c:	78626822 	ldrh	w2, [x1, x2]
  403c10:	376ff782 	tbnz	w2, #13, 403b00 <read_alias_file+0x1d0>
  403c14:	34fff180 	cbz	w0, 403a44 <read_alias_file+0x114>
  403c18:	17ffffbf 	b	403b14 <read_alias_file+0x1e4>
  403c1c:	f94042e7 	ldr	x7, [x23, #128]
  403c20:	d37cef64 	lsl	x4, x27, #4
  403c24:	8b0400e3 	add	x3, x7, x4
  403c28:	a90723a6 	stp	x6, x8, [x29, #112]
  403c2c:	aa1303e1 	mov	x1, x19
  403c30:	8b0a0380 	add	x0, x28, x10
  403c34:	a90813a9 	stp	x9, x4, [x29, #128]
  403c38:	9100077b 	add	x27, x27, #0x1
  403c3c:	a9090fa7 	stp	x7, x3, [x29, #144]
  403c40:	97fff184 	bl	400250 <.plt+0x10>
  403c44:	a94813a9 	ldp	x9, x4, [x29, #128]
  403c48:	aa1903e1 	mov	x1, x25
  403c4c:	f9404ba7 	ldr	x7, [x29, #144]
  403c50:	91000718 	add	x24, x24, #0x1
  403c54:	f9403ba6 	ldr	x6, [x29, #112]
  403c58:	f82468e0 	str	x0, [x7, x4]
  403c5c:	aa0603e2 	mov	x2, x6
  403c60:	8b090380 	add	x0, x28, x9
  403c64:	97fff17b 	bl	400250 <.plt+0x10>
  403c68:	f90002db 	str	x27, [x22]
  403c6c:	f9404fa3 	ldr	x3, [x29, #152]
  403c70:	f9403fa8 	ldr	x8, [x29, #120]
  403c74:	f9000ac8 	str	x8, [x22, #16]
  403c78:	f9000460 	str	x0, [x3, #8]
  403c7c:	17ffff72 	b	403a44 <read_alias_file+0x114>
  403c80:	900003e1 	adrp	x1, 47f000 <main_arena+0x868>
  403c84:	f0000be0 	adrp	x0, 582000 <__gconv_path_elem>
  403c88:	90000003 	adrp	x3, 403000 <_nl_load_domain+0x978>
  403c8c:	d2800202 	mov	x2, #0x10                  	// #16
  403c90:	f947ec21 	ldr	x1, [x1, #4056]
  403c94:	91246063 	add	x3, x3, #0x918
  403c98:	f9404000 	ldr	x0, [x0, #128]
  403c9c:	94000825 	bl	405d30 <qsort>
  403ca0:	17ffff6f 	b	403a5c <read_alias_file+0x12c>
  403ca4:	b5000180 	cbnz	x0, 403cd4 <read_alias_file+0x3a4>
  403ca8:	d280c801 	mov	x1, #0x640                 	// #1600
  403cac:	d2800c9c 	mov	x28, #0x64                  	// #100
  403cb0:	f0000bf7 	adrp	x23, 582000 <__gconv_path_elem>
  403cb4:	f94042e0 	ldr	x0, [x23, #128]
  403cb8:	94003e88 	bl	4136d8 <__libc_realloc>
  403cbc:	b4ffeca0 	cbz	x0, 403a50 <read_alias_file+0x120>
  403cc0:	f90042e0 	str	x0, [x23, #128]
  403cc4:	f90006dc 	str	x28, [x22, #8]
  403cc8:	17ffffa4 	b	403b58 <read_alias_file+0x228>
  403ccc:	3900005f 	strb	wzr, [x2]
  403cd0:	17ffff9e 	b	403b48 <read_alias_file+0x218>
  403cd4:	d37ff81c 	lsl	x28, x0, #1
  403cd8:	d37be801 	lsl	x1, x0, #5
  403cdc:	17fffff5 	b	403cb0 <read_alias_file+0x380>
  403ce0:	b40001db 	cbz	x27, 403d18 <read_alias_file+0x3e8>
  403ce4:	cb1c001c 	sub	x28, x0, x28
  403ce8:	aa0703e1 	mov	x1, x7
  403cec:	8b0400ec 	add	x12, x7, x4
  403cf0:	f940002b 	ldr	x11, [x1]
  403cf4:	91004021 	add	x1, x1, #0x10
  403cf8:	8b1c016b 	add	x11, x11, x28
  403cfc:	f81f002b 	stur	x11, [x1, #-16]
  403d00:	f85f802b 	ldur	x11, [x1, #-8]
  403d04:	8b1c016b 	add	x11, x11, x28
  403d08:	f81f802b 	stur	x11, [x1, #-8]
  403d0c:	eb01019f 	cmp	x12, x1
  403d10:	54ffff01 	b.ne	403cf0 <read_alias_file+0x3c0>  // b.any
  403d14:	17ffffb5 	b	403be8 <read_alias_file+0x2b8>
  403d18:	d2800004 	mov	x4, #0x0                   	// #0
  403d1c:	17ffffb3 	b	403be8 <read_alias_file+0x2b8>
  403d20:	94000c84 	bl	406f30 <_IO_new_fclose>
  403d24:	17ffff4e 	b	403a5c <read_alias_file+0x12c>
  403d28:	94005898 	bl	419f88 <__stack_chk_fail>
  403d2c:	d503201f 	nop

0000000000403d30 <_nl_expand_alias>:
  403d30:	a9bb7bfd 	stp	x29, x30, [sp, #-80]!
  403d34:	910003fd 	mov	x29, sp
  403d38:	a9025bf5 	stp	x21, x22, [sp, #32]
  403d3c:	900003f5 	adrp	x21, 47f000 <main_arena+0x868>
  403d40:	913f62a1 	add	x1, x21, #0xfd8
  403d44:	a90153f3 	stp	x19, x20, [sp, #16]
  403d48:	a90363f7 	stp	x23, x24, [sp, #48]
  403d4c:	aa0003f4 	mov	x20, x0
  403d50:	a9046bf9 	stp	x25, x26, [sp, #64]
  403d54:	91008020 	add	x0, x1, #0x20
  403d58:	52800021 	mov	w1, #0x1                   	// #1
  403d5c:	885ffc02 	ldaxr	w2, [x0]
  403d60:	35000062 	cbnz	w2, 403d6c <_nl_expand_alias+0x3c>
  403d64:	88037c01 	stxr	w3, w1, [x0]
  403d68:	35ffffa3 	cbnz	w3, 403d5c <_nl_expand_alias+0x2c>
  403d6c:	7100005f 	cmp	w2, #0x0
  403d70:	54000b61 	b.ne	403edc <_nl_expand_alias+0x1ac>  // b.any
  403d74:	913f62a1 	add	x1, x21, #0xfd8
  403d78:	f9401420 	ldr	x0, [x1, #40]
  403d7c:	b4000a80 	cbz	x0, 403ecc <_nl_expand_alias+0x19c>
  403d80:	f947eeb7 	ldr	x23, [x21, #4056]
  403d84:	900002f3 	adrp	x19, 45f000 <translit_from_idx+0x14b8>
  403d88:	9104a273 	add	x19, x19, #0x128
  403d8c:	b5000717 	cbnz	x23, 403e6c <_nl_expand_alias+0x13c>
  403d90:	913f62b6 	add	x22, x21, #0xfd8
  403d94:	f94016c4 	ldr	x4, [x22, #40]
  403d98:	52800001 	mov	w1, #0x0                   	// #0
  403d9c:	39400080 	ldrb	w0, [x4]
  403da0:	34000320 	cbz	w0, 403e04 <_nl_expand_alias+0xd4>
  403da4:	d503201f 	nop
  403da8:	91000481 	add	x1, x4, #0x1
  403dac:	7100e81f 	cmp	w0, #0x3a
  403db0:	54000861 	b.ne	403ebc <_nl_expand_alias+0x18c>  // b.any
  403db4:	d503201f 	nop
  403db8:	aa0103e0 	mov	x0, x1
  403dbc:	38401422 	ldrb	w2, [x1], #1
  403dc0:	7100e85f 	cmp	w2, #0x3a
  403dc4:	54ffffa0 	b.eq	403db8 <_nl_expand_alias+0x88>  // b.none
  403dc8:	34000402 	cbz	w2, 403e48 <_nl_expand_alias+0x118>
  403dcc:	91000401 	add	x1, x0, #0x1
  403dd0:	14000002 	b	403dd8 <_nl_expand_alias+0xa8>
  403dd4:	aa0203e1 	mov	x1, x2
  403dd8:	aa0103e2 	mov	x2, x1
  403ddc:	aa0103e4 	mov	x4, x1
  403de0:	38401443 	ldrb	w3, [x2], #1
  403de4:	7100e87f 	cmp	w3, #0x3a
  403de8:	7a401864 	ccmp	w3, #0x0, #0x4, ne  // ne = any
  403dec:	54ffff41 	b.ne	403dd4 <_nl_expand_alias+0xa4>  // b.any
  403df0:	eb00003f 	cmp	x1, x0
  403df4:	54000308 	b.hi	403e54 <_nl_expand_alias+0x124>  // b.pmore
  403df8:	52800021 	mov	w1, #0x1                   	// #1
  403dfc:	39400080 	ldrb	w0, [x4]
  403e00:	35fffd40 	cbnz	w0, 403da8 <_nl_expand_alias+0x78>
  403e04:	35000881 	cbnz	w1, 403f14 <_nl_expand_alias+0x1e4>
  403e08:	d2800004 	mov	x4, #0x0                   	// #0
  403e0c:	913f62a0 	add	x0, x21, #0xfd8
  403e10:	52800002 	mov	w2, #0x0                   	// #0
  403e14:	91008000 	add	x0, x0, #0x20
  403e18:	885f7c01 	ldxr	w1, [x0]
  403e1c:	8803fc02 	stlxr	w3, w2, [x0]
  403e20:	35ffffc3 	cbnz	w3, 403e18 <_nl_expand_alias+0xe8>
  403e24:	7100043f 	cmp	w1, #0x1
  403e28:	540005ec 	b.gt	403ee4 <_nl_expand_alias+0x1b4>
  403e2c:	aa0403e0 	mov	x0, x4
  403e30:	a94153f3 	ldp	x19, x20, [sp, #16]
  403e34:	a9425bf5 	ldp	x21, x22, [sp, #32]
  403e38:	a94363f7 	ldp	x23, x24, [sp, #48]
  403e3c:	a9446bf9 	ldp	x25, x26, [sp, #64]
  403e40:	a8c57bfd 	ldp	x29, x30, [sp], #80
  403e44:	d65f03c0 	ret
  403e48:	aa0003e4 	mov	x4, x0
  403e4c:	52800021 	mov	w1, #0x1                   	// #1
  403e50:	17ffffeb 	b	403dfc <_nl_expand_alias+0xcc>
  403e54:	f90016c1 	str	x1, [x22, #40]
  403e58:	4b000021 	sub	w1, w1, w0
  403e5c:	97fffeb5 	bl	403930 <read_alias_file>
  403e60:	b4fff9a0 	cbz	x0, 403d94 <_nl_expand_alias+0x64>
  403e64:	f947eeb7 	ldr	x23, [x21, #4056]
  403e68:	b4fff957 	cbz	x23, 403d90 <_nl_expand_alias+0x60>
  403e6c:	f0000be0 	adrp	x0, 582000 <__gconv_path_elem>
  403e70:	d2800018 	mov	x24, #0x0                   	// #0
  403e74:	f9404019 	ldr	x25, [x0, #128]
  403e78:	14000005 	b	403e8c <_nl_expand_alias+0x15c>
  403e7c:	54000240 	b.eq	403ec4 <_nl_expand_alias+0x194>  // b.none
  403e80:	910006d8 	add	x24, x22, #0x1
  403e84:	eb1802ff 	cmp	x23, x24
  403e88:	54fff849 	b.ls	403d90 <_nl_expand_alias+0x60>  // b.plast
  403e8c:	8b170316 	add	x22, x24, x23
  403e90:	aa1303e2 	mov	x2, x19
  403e94:	aa1403e0 	mov	x0, x20
  403e98:	d341fed6 	lsr	x22, x22, #1
  403e9c:	d37ceec1 	lsl	x1, x22, #4
  403ea0:	8b01033a 	add	x26, x25, x1
  403ea4:	f8616b21 	ldr	x1, [x25, x1]
  403ea8:	940047e6 	bl	415e40 <__strcasecmp_l>
  403eac:	7100001f 	cmp	w0, #0x0
  403eb0:	54fffe6a 	b.ge	403e7c <_nl_expand_alias+0x14c>  // b.tcont
  403eb4:	aa1603f7 	mov	x23, x22
  403eb8:	17fffff3 	b	403e84 <_nl_expand_alias+0x154>
  403ebc:	aa0403e0 	mov	x0, x4
  403ec0:	17ffffc3 	b	403dcc <_nl_expand_alias+0x9c>
  403ec4:	f9400744 	ldr	x4, [x26, #8]
  403ec8:	17ffffd1 	b	403e0c <_nl_expand_alias+0xdc>
  403ecc:	90000260 	adrp	x0, 44f000 <free_slotinfo+0x8>
  403ed0:	9117a000 	add	x0, x0, #0x5e8
  403ed4:	f9001420 	str	x0, [x1, #40]
  403ed8:	17ffffaa 	b	403d80 <_nl_expand_alias+0x50>
  403edc:	9400573b 	bl	419bc8 <__lll_lock_wait_private>
  403ee0:	17ffffa5 	b	403d74 <_nl_expand_alias+0x44>
  403ee4:	d2801021 	mov	x1, #0x81                  	// #129
  403ee8:	d2800022 	mov	x2, #0x1                   	// #1
  403eec:	d2800003 	mov	x3, #0x0                   	// #0
  403ef0:	d2800c48 	mov	x8, #0x62                  	// #98
  403ef4:	d4000001 	svc	#0x0
  403ef8:	aa0403e0 	mov	x0, x4
  403efc:	a94153f3 	ldp	x19, x20, [sp, #16]
  403f00:	a9425bf5 	ldp	x21, x22, [sp, #32]
  403f04:	a94363f7 	ldp	x23, x24, [sp, #48]
  403f08:	a9446bf9 	ldp	x25, x26, [sp, #64]
  403f0c:	a8c57bfd 	ldp	x29, x30, [sp], #80
  403f10:	d65f03c0 	ret
  403f14:	913f62a0 	add	x0, x21, #0xfd8
  403f18:	f9001404 	str	x4, [x0, #40]
  403f1c:	17ffffbb 	b	403e08 <_nl_expand_alias+0xd8>

0000000000403f20 <_nl_make_l10nflist>:
  403f20:	d102c3ff 	sub	sp, sp, #0xb0
  403f24:	a9027bfd 	stp	x29, x30, [sp, #32]
  403f28:	910083fd 	add	x29, sp, #0x20
  403f2c:	a90353f3 	stp	x19, x20, [sp, #48]
  403f30:	2a0303f4 	mov	w20, w3
  403f34:	a9045bf5 	stp	x21, x22, [sp, #64]
  403f38:	121e0073 	and	w19, w3, #0x4
  403f3c:	a90563f7 	stp	x23, x24, [sp, #80]
  403f40:	aa0203f6 	mov	x22, x2
  403f44:	a9066bf9 	stp	x25, x26, [sp, #96]
  403f48:	aa0403f8 	mov	x24, x4
  403f4c:	a9071fa5 	stp	x5, x7, [x29, #112]
  403f50:	aa0103f9 	mov	x25, x1
  403f54:	a90803a6 	stp	x6, x0, [x29, #128]
  403f58:	aa0503f7 	mov	x23, x5
  403f5c:	91000855 	add	x21, x2, #0x2
  403f60:	aa0403e0 	mov	x0, x4
  403f64:	f9003bfb 	str	x27, [sp, #112]
  403f68:	94004396 	bl	414dc0 <__strlen>
  403f6c:	aa0003fa 	mov	x26, x0
  403f70:	361000b4 	tbz	w20, #2, 403f84 <_nl_make_l10nflist+0x64>
  403f74:	aa1703e0 	mov	x0, x23
  403f78:	91000757 	add	x23, x26, #0x1
  403f7c:	94004391 	bl	414dc0 <__strlen>
  403f80:	8b0002fa 	add	x26, x23, x0
  403f84:	121f0280 	and	w0, w20, #0x2
  403f88:	b9006ba0 	str	w0, [x29, #104]
  403f8c:	d2800017 	mov	x23, #0x0                   	// #0
  403f90:	36080094 	tbz	w20, #1, 403fa0 <_nl_make_l10nflist+0x80>
  403f94:	f94043a0 	ldr	x0, [x29, #128]
  403f98:	9400438a 	bl	414dc0 <__strlen>
  403f9c:	91000417 	add	x23, x0, #0x1
  403fa0:	12000280 	and	w0, w20, #0x1
  403fa4:	b90067a0 	str	w0, [x29, #100]
  403fa8:	360000b4 	tbz	w20, #0, 403fbc <_nl_make_l10nflist+0x9c>
  403fac:	f9403fa0 	ldr	x0, [x29, #120]
  403fb0:	910006f7 	add	x23, x23, #0x1
  403fb4:	94004383 	bl	414dc0 <__strlen>
  403fb8:	8b0002f7 	add	x23, x23, x0
  403fbc:	121d0280 	and	w0, w20, #0x8
  403fc0:	b90063a0 	str	w0, [x29, #96]
  403fc4:	8b1a02f7 	add	x23, x23, x26
  403fc8:	d280001a 	mov	x26, #0x0                   	// #0
  403fcc:	8b1502f5 	add	x21, x23, x21
  403fd0:	36180094 	tbz	w20, #3, 403fe0 <_nl_make_l10nflist+0xc0>
  403fd4:	f9404ba0 	ldr	x0, [x29, #144]
  403fd8:	9400437a 	bl	414dc0 <__strlen>
  403fdc:	9100041a 	add	x26, x0, #0x1
  403fe0:	f9404fa0 	ldr	x0, [x29, #152]
  403fe4:	94004377 	bl	414dc0 <__strlen>
  403fe8:	aa0003f7 	mov	x23, x0
  403fec:	8b1a0000 	add	x0, x0, x26
  403ff0:	8b150000 	add	x0, x0, x21
  403ff4:	94003be3 	bl	412f80 <__libc_malloc>
  403ff8:	aa0003f5 	mov	x21, x0
  403ffc:	b40022e0 	cbz	x0, 404458 <_nl_make_l10nflist+0x538>
  404000:	f9002fbc 	str	x28, [x29, #88]
  404004:	aa1603e2 	mov	x2, x22
  404008:	aa1903e1 	mov	x1, x25
  40400c:	97fff091 	bl	400250 <.plt+0x10>
  404010:	b4000256 	cbz	x22, 404058 <_nl_make_l10nflist+0x138>
  404014:	aa1503fb 	mov	x27, x21
  404018:	aa1603fc 	mov	x28, x22
  40401c:	aa1b03e0 	mov	x0, x27
  404020:	94004368 	bl	414dc0 <__strlen>
  404024:	8b000363 	add	x3, x27, x0
  404028:	aa2003e0 	mvn	x0, x0
  40402c:	5280075a 	mov	w26, #0x3a                  	// #58
  404030:	ab00039c 	adds	x28, x28, x0
  404034:	54000120 	b.eq	404058 <_nl_make_l10nflist+0x138>  // b.none
  404038:	3900007a 	strb	w26, [x3]
  40403c:	9100047b 	add	x27, x3, #0x1
  404040:	aa1b03e0 	mov	x0, x27
  404044:	9400435f 	bl	414dc0 <__strlen>
  404048:	8b000363 	add	x3, x27, x0
  40404c:	aa2003e0 	mvn	x0, x0
  404050:	ab00039c 	adds	x28, x28, x0
  404054:	54ffff21 	b.ne	404038 <_nl_make_l10nflist+0x118>  // b.any
  404058:	8b1602a2 	add	x2, x21, x22
  40405c:	528005e3 	mov	w3, #0x2f                  	// #47
  404060:	aa1803e1 	mov	x1, x24
  404064:	aa0203e0 	mov	x0, x2
  404068:	381ff043 	sturb	w3, [x2, #-1]
  40406c:	94004705 	bl	415c80 <__stpcpy>
  404070:	35001573 	cbnz	w19, 40431c <_nl_make_l10nflist+0x3fc>
  404074:	b9406ba1 	ldr	w1, [x29, #104]
  404078:	91000403 	add	x3, x0, #0x1
  40407c:	35001421 	cbnz	w1, 404300 <_nl_make_l10nflist+0x3e0>
  404080:	b94067a1 	ldr	w1, [x29, #100]
  404084:	35001301 	cbnz	w1, 4042e4 <_nl_make_l10nflist+0x3c4>
  404088:	b94063a1 	ldr	w1, [x29, #96]
  40408c:	350011e1 	cbnz	w1, 4042c8 <_nl_make_l10nflist+0x3a8>
  404090:	528005e1 	mov	w1, #0x2f                  	// #47
  404094:	39000001 	strb	w1, [x0]
  404098:	f9404fa1 	ldr	x1, [x29, #152]
  40409c:	910006e2 	add	x2, x23, #0x1
  4040a0:	aa0303e0 	mov	x0, x3
  4040a4:	d2800017 	mov	x23, #0x0                   	// #0
  4040a8:	97fff06a 	bl	400250 <.plt+0x10>
  4040ac:	f94047a0 	ldr	x0, [x29, #136]
  4040b0:	f940001b 	ldr	x27, [x0]
  4040b4:	f90037bb 	str	x27, [x29, #104]
  4040b8:	b40001bb 	cbz	x27, 4040ec <_nl_make_l10nflist+0x1cc>
  4040bc:	d503201f 	nop
  4040c0:	f9400362 	ldr	x2, [x27]
  4040c4:	aa1503e1 	mov	x1, x21
  4040c8:	aa0203e0 	mov	x0, x2
  4040cc:	b40000c2 	cbz	x2, 4040e4 <_nl_make_l10nflist+0x1c4>
  4040d0:	9400421c 	bl	414940 <strcmp>
  4040d4:	7100001f 	cmp	w0, #0x0
  4040d8:	54001300 	b.eq	404338 <_nl_make_l10nflist+0x418>  // b.none
  4040dc:	5400008b 	b.lt	4040ec <_nl_make_l10nflist+0x1cc>  // b.tstop
  4040e0:	aa1b03f7 	mov	x23, x27
  4040e4:	f9400f7b 	ldr	x27, [x27, #24]
  4040e8:	b5fffedb 	cbnz	x27, 4040c0 <_nl_make_l10nflist+0x1a0>
  4040ec:	b940a3a0 	ldr	w0, [x29, #160]
  4040f0:	34001220 	cbz	w0, 404334 <_nl_make_l10nflist+0x414>
  4040f4:	12855541 	mov	w1, #0xffffd555            	// #-10923
  4040f8:	528aaaa0 	mov	w0, #0x5555                	// #21845
  4040fc:	0a940421 	and	w1, w1, w20, asr #1
  404100:	0a000280 	and	w0, w20, w0
  404104:	0b000021 	add	w1, w1, w0
  404108:	12819983 	mov	w3, #0xfffff333            	// #-3277
  40410c:	52866660 	mov	w0, #0x3333                	// #13107
  404110:	0a000022 	and	w2, w1, w0
  404114:	0a810860 	and	w0, w3, w1, asr #2
  404118:	5281e1e1 	mov	w1, #0xf0f                 	// #3855
  40411c:	0b020000 	add	w0, w0, w2
  404120:	52800033 	mov	w19, #0x1                   	// #1
  404124:	0b801000 	add	w0, w0, w0, asr #4
  404128:	0a010001 	and	w1, w0, w1
  40412c:	d3482c00 	ubfx	x0, x0, #8, #4
  404130:	0b010000 	add	w0, w0, w1
  404134:	1ac02260 	lsl	w0, w19, w0
  404138:	937c7c1a 	sbfiz	x26, x0, #4, #32
  40413c:	b40017d6 	cbz	x22, 404434 <_nl_make_l10nflist+0x514>
  404140:	aa1603f3 	mov	x19, x22
  404144:	aa1903fc 	mov	x28, x25
  404148:	d280001b 	mov	x27, #0x0                   	// #0
  40414c:	d503201f 	nop
  404150:	aa1c03e0 	mov	x0, x28
  404154:	9400431b 	bl	414dc0 <__strlen>
  404158:	91000403 	add	x3, x0, #0x1
  40415c:	aa2003e0 	mvn	x0, x0
  404160:	8b03039c 	add	x28, x28, x3
  404164:	9100077b 	add	x27, x27, #0x1
  404168:	ab000273 	adds	x19, x19, x0
  40416c:	54ffff21 	b.ne	404150 <_nl_make_l10nflist+0x230>  // b.any
  404170:	9b1a7f60 	mul	x0, x27, x26
  404174:	9100a000 	add	x0, x0, #0x28
  404178:	94003b82 	bl	412f80 <__libc_malloc>
  40417c:	aa0003fb 	mov	x27, x0
  404180:	b4001700 	cbz	x0, 404460 <_nl_make_l10nflist+0x540>
  404184:	aa1603fa 	mov	x26, x22
  404188:	aa1903fc 	mov	x28, x25
  40418c:	f9000015 	str	x21, [x0]
  404190:	aa1c03e0 	mov	x0, x28
  404194:	9400430b 	bl	414dc0 <__strlen>
  404198:	91000403 	add	x3, x0, #0x1
  40419c:	aa2003e0 	mvn	x0, x0
  4041a0:	8b03039c 	add	x28, x28, x3
  4041a4:	91000673 	add	x19, x19, #0x1
  4041a8:	ab00035a 	adds	x26, x26, x0
  4041ac:	54ffff21 	b.ne	404190 <_nl_make_l10nflist+0x270>  // b.any
  4041b0:	52800020 	mov	w0, #0x1                   	// #1
  4041b4:	f100067f 	cmp	x19, #0x1
  4041b8:	540007a0 	b.eq	4042ac <_nl_make_l10nflist+0x38c>  // b.none
  4041bc:	b9000b60 	str	w0, [x27, #8]
  4041c0:	f9000b7f 	str	xzr, [x27, #16]
  4041c4:	b40010b7 	cbz	x23, 4043d8 <_nl_make_l10nflist+0x4b8>
  4041c8:	f9400ee0 	ldr	x0, [x23, #24]
  4041cc:	f9000f60 	str	x0, [x27, #24]
  4041d0:	f9000efb 	str	x27, [x23, #24]
  4041d4:	b40013f6 	cbz	x22, 404450 <_nl_make_l10nflist+0x530>
  4041d8:	aa1603f5 	mov	x21, x22
  4041dc:	aa1903f3 	mov	x19, x25
  4041e0:	d2800017 	mov	x23, #0x0                   	// #0
  4041e4:	d503201f 	nop
  4041e8:	aa1303e0 	mov	x0, x19
  4041ec:	940042f5 	bl	414dc0 <__strlen>
  4041f0:	91000401 	add	x1, x0, #0x1
  4041f4:	aa2003e0 	mvn	x0, x0
  4041f8:	8b010273 	add	x19, x19, x1
  4041fc:	910006f7 	add	x23, x23, #0x1
  404200:	ab0002b5 	adds	x21, x21, x0
  404204:	54ffff21 	b.ne	4041e8 <_nl_make_l10nflist+0x2c8>  // b.any
  404208:	f10006ff 	cmp	x23, #0x1
  40420c:	1a9f17e9 	cset	w9, eq  // eq = none
  404210:	4b090297 	sub	w23, w20, w9
  404214:	8b160320 	add	x0, x25, x22
  404218:	f90037a0 	str	x0, [x29, #104]
  40421c:	2a3403f5 	mvn	w21, w20
  404220:	d2800013 	mov	x19, #0x0                   	// #0
  404224:	37f800d7 	tbnz	w23, #31, 40423c <_nl_make_l10nflist+0x31c>
  404228:	6a1502ff 	tst	w23, w21
  40422c:	540008e0 	b.eq	404348 <_nl_make_l10nflist+0x428>  // b.none
  404230:	510006f7 	sub	w23, w23, #0x1
  404234:	310006ff 	cmn	w23, #0x1
  404238:	54ffff81 	b.ne	404228 <_nl_make_l10nflist+0x308>  // b.any
  40423c:	f9404fa0 	ldr	x0, [x29, #152]
  404240:	f0000241 	adrp	x1, 44f000 <free_slotinfo+0x8>
  404244:	d2800162 	mov	x2, #0xb                   	// #11
  404248:	911ac021 	add	x1, x1, #0x6b0
  40424c:	94004334 	bl	414f1c <strncmp>
  404250:	35000160 	cbnz	w0, 40427c <_nl_make_l10nflist+0x35c>
  404254:	37f80154 	tbnz	w20, #31, 40427c <_nl_make_l10nflist+0x35c>
  404258:	f0000240 	adrp	x0, 44f000 <free_slotinfo+0x8>
  40425c:	2a3403f5 	mvn	w21, w20
  404260:	911b0016 	add	x22, x0, #0x6c0
  404264:	52800037 	mov	w23, #0x1                   	// #1
  404268:	6a15029f 	tst	w20, w21
  40426c:	54000c00 	b.eq	4043ec <_nl_make_l10nflist+0x4cc>  // b.none
  404270:	51000694 	sub	w20, w20, #0x1
  404274:	3100069f 	cmn	w20, #0x1
  404278:	54ffff81 	b.ne	404268 <_nl_make_l10nflist+0x348>  // b.any
  40427c:	91001273 	add	x19, x19, #0x4
  404280:	f9402fbc 	ldr	x28, [x29, #88]
  404284:	f8337b7f 	str	xzr, [x27, x19, lsl #3]
  404288:	aa1b03e0 	mov	x0, x27
  40428c:	f9403bfb 	ldr	x27, [sp, #112]
  404290:	a9427bfd 	ldp	x29, x30, [sp, #32]
  404294:	a94353f3 	ldp	x19, x20, [sp, #48]
  404298:	a9445bf5 	ldp	x21, x22, [sp, #64]
  40429c:	a94563f7 	ldp	x23, x24, [sp, #80]
  4042a0:	a9466bf9 	ldp	x25, x26, [sp, #96]
  4042a4:	9102c3ff 	add	sp, sp, #0xb0
  4042a8:	d65f03c0 	ret
  4042ac:	12000680 	and	w0, w20, #0x3
  4042b0:	f9000b7f 	str	xzr, [x27, #16]
  4042b4:	71000c1f 	cmp	w0, #0x3
  4042b8:	1a9f17e0 	cset	w0, eq  // eq = none
  4042bc:	b9000b60 	str	w0, [x27, #8]
  4042c0:	b5fff857 	cbnz	x23, 4041c8 <_nl_make_l10nflist+0x2a8>
  4042c4:	14000045 	b	4043d8 <_nl_make_l10nflist+0x4b8>
  4042c8:	52800801 	mov	w1, #0x40                  	// #64
  4042cc:	39000001 	strb	w1, [x0]
  4042d0:	f9404ba1 	ldr	x1, [x29, #144]
  4042d4:	aa0303e0 	mov	x0, x3
  4042d8:	9400466a 	bl	415c80 <__stpcpy>
  4042dc:	91000403 	add	x3, x0, #0x1
  4042e0:	17ffff6c 	b	404090 <_nl_make_l10nflist+0x170>
  4042e4:	528005c1 	mov	w1, #0x2e                  	// #46
  4042e8:	39000001 	strb	w1, [x0]
  4042ec:	f9403fa1 	ldr	x1, [x29, #120]
  4042f0:	aa0303e0 	mov	x0, x3
  4042f4:	94004663 	bl	415c80 <__stpcpy>
  4042f8:	91000403 	add	x3, x0, #0x1
  4042fc:	17ffff63 	b	404088 <_nl_make_l10nflist+0x168>
  404300:	528005c1 	mov	w1, #0x2e                  	// #46
  404304:	39000001 	strb	w1, [x0]
  404308:	f94043a1 	ldr	x1, [x29, #128]
  40430c:	aa0303e0 	mov	x0, x3
  404310:	9400465c 	bl	415c80 <__stpcpy>
  404314:	91000403 	add	x3, x0, #0x1
  404318:	17ffff5a 	b	404080 <_nl_make_l10nflist+0x160>
  40431c:	52800be1 	mov	w1, #0x5f                  	// #95
  404320:	39000001 	strb	w1, [x0]
  404324:	f9403ba1 	ldr	x1, [x29, #112]
  404328:	91000400 	add	x0, x0, #0x1
  40432c:	94004655 	bl	415c80 <__stpcpy>
  404330:	17ffff51 	b	404074 <_nl_make_l10nflist+0x154>
  404334:	d280001b 	mov	x27, #0x0                   	// #0
  404338:	aa1503e0 	mov	x0, x21
  40433c:	94003ca9 	bl	4135e0 <__free>
  404340:	f9402fbc 	ldr	x28, [x29, #88]
  404344:	17ffffd1 	b	404288 <_nl_make_l10nflist+0x368>
  404348:	8b130f7c 	add	x28, x27, x19, lsl #3
  40434c:	d280001a 	mov	x26, #0x0                   	// #0
  404350:	b40003fa 	cbz	x26, 4043cc <_nl_make_l10nflist+0x4ac>
  404354:	d503201f 	nop
  404358:	f94037a1 	ldr	x1, [x29, #104]
  40435c:	aa1a03e0 	mov	x0, x26
  404360:	eb01035f 	cmp	x26, x1
  404364:	54fff662 	b.cs	404230 <_nl_make_l10nflist+0x310>  // b.hs, b.nlast
  404368:	94004296 	bl	414dc0 <__strlen>
  40436c:	91000400 	add	x0, x0, #0x1
  404370:	f94037a1 	ldr	x1, [x29, #104]
  404374:	ab00035a 	adds	x26, x26, x0
  404378:	fa411342 	ccmp	x26, x1, #0x2, ne  // ne = any
  40437c:	54fff5a2 	b.cs	404230 <_nl_make_l10nflist+0x310>  // b.hs, b.nlast
  404380:	aa1a03e0 	mov	x0, x26
  404384:	9400428f 	bl	414dc0 <__strlen>
  404388:	f9404ba1 	ldr	x1, [x29, #144]
  40438c:	91000402 	add	x2, x0, #0x1
  404390:	f90003e1 	str	x1, [sp]
  404394:	9100239c 	add	x28, x28, #0x8
  404398:	a9471fa5 	ldp	x5, x7, [x29, #112]
  40439c:	aa1803e4 	mov	x4, x24
  4043a0:	a94803a6 	ldp	x6, x0, [x29, #128]
  4043a4:	2a1703e3 	mov	w3, w23
  4043a8:	f9404fa1 	ldr	x1, [x29, #152]
  4043ac:	91000673 	add	x19, x19, #0x1
  4043b0:	f90007e1 	str	x1, [sp, #8]
  4043b4:	52800021 	mov	w1, #0x1                   	// #1
  4043b8:	b90013e1 	str	w1, [sp, #16]
  4043bc:	aa1a03e1 	mov	x1, x26
  4043c0:	97fffed8 	bl	403f20 <_nl_make_l10nflist>
  4043c4:	f9000f80 	str	x0, [x28, #24]
  4043c8:	b5fffc9a 	cbnz	x26, 404358 <_nl_make_l10nflist+0x438>
  4043cc:	aa1903fa 	mov	x26, x25
  4043d0:	b5fffd96 	cbnz	x22, 404380 <_nl_make_l10nflist+0x460>
  4043d4:	17ffff97 	b	404230 <_nl_make_l10nflist+0x310>
  4043d8:	f94037a0 	ldr	x0, [x29, #104]
  4043dc:	f9000f60 	str	x0, [x27, #24]
  4043e0:	f94047a0 	ldr	x0, [x29, #136]
  4043e4:	f900001b 	str	x27, [x0]
  4043e8:	17ffff7b 	b	4041d4 <_nl_make_l10nflist+0x2b4>
  4043ec:	f9404ba0 	ldr	x0, [x29, #144]
  4043f0:	aa1603e1 	mov	x1, x22
  4043f4:	f90003e0 	str	x0, [sp]
  4043f8:	2a1403e3 	mov	w3, w20
  4043fc:	f9404fa0 	ldr	x0, [x29, #152]
  404400:	aa1803e4 	mov	x4, x24
  404404:	f90007e0 	str	x0, [sp, #8]
  404408:	d2800362 	mov	x2, #0x1b                  	// #27
  40440c:	a9471fa5 	ldp	x5, x7, [x29, #112]
  404410:	b90013f7 	str	w23, [sp, #16]
  404414:	f94043a6 	ldr	x6, [x29, #128]
  404418:	91000679 	add	x25, x19, #0x1
  40441c:	f94047a0 	ldr	x0, [x29, #136]
  404420:	97fffec0 	bl	403f20 <_nl_make_l10nflist>
  404424:	91001261 	add	x1, x19, #0x4
  404428:	aa1903f3 	mov	x19, x25
  40442c:	f8217b60 	str	x0, [x27, x1, lsl #3]
  404430:	17ffff90 	b	404270 <_nl_make_l10nflist+0x350>
  404434:	d2800500 	mov	x0, #0x28                  	// #40
  404438:	94003ad2 	bl	412f80 <__libc_malloc>
  40443c:	aa0003fb 	mov	x27, x0
  404440:	b4000100 	cbz	x0, 404460 <_nl_make_l10nflist+0x540>
  404444:	2a1303e0 	mov	w0, w19
  404448:	f9000375 	str	x21, [x27]
  40444c:	17ffff5c 	b	4041bc <_nl_make_l10nflist+0x29c>
  404450:	2a1403f7 	mov	w23, w20
  404454:	17ffff70 	b	404214 <_nl_make_l10nflist+0x2f4>
  404458:	d280001b 	mov	x27, #0x0                   	// #0
  40445c:	17ffff8b 	b	404288 <_nl_make_l10nflist+0x368>
  404460:	aa1503e0 	mov	x0, x21
  404464:	d280001b 	mov	x27, #0x0                   	// #0
  404468:	94003c5e 	bl	4135e0 <__free>
  40446c:	f9402fbc 	ldr	x28, [x29, #88]
  404470:	17ffff86 	b	404288 <_nl_make_l10nflist+0x368>
  404474:	d503201f 	nop

0000000000404478 <_nl_normalize_codeset>:
  404478:	a9bd7bfd 	stp	x29, x30, [sp, #-48]!
  40447c:	910003fd 	mov	x29, sp
  404480:	b40008a1 	cbz	x1, 404594 <_nl_normalize_codeset+0x11c>
  404484:	a9025bb5 	stp	x21, x22, [x29, #32]
  404488:	f00002d6 	adrp	x22, 45f000 <translit_from_idx+0x14b8>
  40448c:	9104a2c2 	add	x2, x22, #0x128
  404490:	a90153b3 	stp	x19, x20, [x29, #16]
  404494:	aa0003f5 	mov	x21, x0
  404498:	aa0103f4 	mov	x20, x1
  40449c:	aa0003e3 	mov	x3, x0
  4044a0:	8b000021 	add	x1, x1, x0
  4044a4:	f9403453 	ldr	x19, [x2, #104]
  4044a8:	52800025 	mov	w5, #0x1                   	// #1
  4044ac:	d2800000 	mov	x0, #0x0                   	// #0
  4044b0:	39400062 	ldrb	w2, [x3]
  4044b4:	91000463 	add	x3, x3, #0x1
  4044b8:	5100c044 	sub	w4, w2, #0x30
  4044bc:	d37f1c42 	ubfiz	x2, x2, #1, #8
  4044c0:	78626a62 	ldrh	w2, [x19, x2]
  4044c4:	36180082 	tbz	w2, #3, 4044d4 <_nl_normalize_codeset+0x5c>
  4044c8:	7100289f 	cmp	w4, #0xa
  4044cc:	91000400 	add	x0, x0, #0x1
  4044d0:	1a9f30a5 	csel	w5, w5, wzr, cc  // cc = lo, ul, last
  4044d4:	eb03003f 	cmp	x1, x3
  4044d8:	54fffec1 	b.ne	4044b0 <_nl_normalize_codeset+0x38>  // b.any
  4044dc:	350003e5 	cbnz	w5, 404558 <_nl_normalize_codeset+0xe0>
  4044e0:	91000400 	add	x0, x0, #0x1
  4044e4:	94003aa7 	bl	412f80 <__libc_malloc>
  4044e8:	aa0003e4 	mov	x4, x0
  4044ec:	b40003c0 	cbz	x0, 404564 <_nl_normalize_codeset+0xec>
  4044f0:	9104a2d6 	add	x22, x22, #0x128
  4044f4:	d2800002 	mov	x2, #0x0                   	// #0
  4044f8:	f9403ac7 	ldr	x7, [x22, #112]
  4044fc:	14000007 	b	404518 <_nl_normalize_codeset+0xa0>
  404500:	91000484 	add	x4, x4, #0x1
  404504:	b86578e1 	ldr	w1, [x7, x5, lsl #2]
  404508:	381ff081 	sturb	w1, [x4, #-1]
  40450c:	91000442 	add	x2, x2, #0x1
  404510:	eb02029f 	cmp	x20, x2
  404514:	54000189 	b.ls	404544 <_nl_normalize_codeset+0xcc>  // b.plast
  404518:	38626aa5 	ldrb	w5, [x21, x2]
  40451c:	5100c0a1 	sub	w1, w5, #0x30
  404520:	78657a66 	ldrh	w6, [x19, x5, lsl #1]
  404524:	3757fee6 	tbnz	w6, #10, 404500 <_nl_normalize_codeset+0x88>
  404528:	7100243f 	cmp	w1, #0x9
  40452c:	54ffff08 	b.hi	40450c <_nl_normalize_codeset+0x94>  // b.pmore
  404530:	39000085 	strb	w5, [x4]
  404534:	91000442 	add	x2, x2, #0x1
  404538:	91000484 	add	x4, x4, #0x1
  40453c:	eb02029f 	cmp	x20, x2
  404540:	54fffec8 	b.hi	404518 <_nl_normalize_codeset+0xa0>  // b.pmore
  404544:	a94153b3 	ldp	x19, x20, [x29, #16]
  404548:	a9425bb5 	ldp	x21, x22, [x29, #32]
  40454c:	3900009f 	strb	wzr, [x4]
  404550:	a8c37bfd 	ldp	x29, x30, [sp], #48
  404554:	d65f03c0 	ret
  404558:	91001000 	add	x0, x0, #0x4
  40455c:	94003a89 	bl	412f80 <__libc_malloc>
  404560:	b50000c0 	cbnz	x0, 404578 <_nl_normalize_codeset+0x100>
  404564:	a94153b3 	ldp	x19, x20, [x29, #16]
  404568:	a9425bb5 	ldp	x21, x22, [x29, #32]
  40456c:	d2800000 	mov	x0, #0x0                   	// #0
  404570:	a8c37bfd 	ldp	x29, x30, [sp], #48
  404574:	d65f03c0 	ret
  404578:	aa0003e4 	mov	x4, x0
  40457c:	9104a2c1 	add	x1, x22, #0x128
  404580:	528e6d22 	mov	w2, #0x7369                	// #29545
  404584:	72a00de2 	movk	w2, #0x6f, lsl #16
  404588:	f9403433 	ldr	x19, [x1, #104]
  40458c:	b8003482 	str	w2, [x4], #3
  404590:	17ffffd8 	b	4044f0 <_nl_normalize_codeset+0x78>
  404594:	d2800080 	mov	x0, #0x4                   	// #4
  404598:	94003a7a 	bl	412f80 <__libc_malloc>
  40459c:	b4fffe80 	cbz	x0, 40456c <_nl_normalize_codeset+0xf4>
  4045a0:	aa0003e4 	mov	x4, x0
  4045a4:	528e6d21 	mov	w1, #0x7369                	// #29545
  4045a8:	72a00de1 	movk	w1, #0x6f, lsl #16
  4045ac:	b8003481 	str	w1, [x4], #3
  4045b0:	17ffffe7 	b	40454c <_nl_normalize_codeset+0xd4>
  4045b4:	00000000 	.inst	0x00000000 ; undefined

00000000004045b8 <_nl_explode_name>:
  4045b8:	a9ba7bfd 	stp	x29, x30, [sp, #-96]!
  4045bc:	910003fd 	mov	x29, sp
  4045c0:	a90153f3 	stp	x19, x20, [sp, #16]
  4045c4:	a9025bf5 	stp	x21, x22, [sp, #32]
  4045c8:	aa0003f5 	mov	x21, x0
  4045cc:	a90363f7 	stp	x23, x24, [sp, #48]
  4045d0:	aa0403f6 	mov	x22, x4
  4045d4:	f900005f 	str	xzr, [x2]
  4045d8:	aa0203f8 	mov	x24, x2
  4045dc:	f900007f 	str	xzr, [x3]
  4045e0:	aa0303f7 	mov	x23, x3
  4045e4:	f900009f 	str	xzr, [x4]
  4045e8:	f90000bf 	str	xzr, [x5]
  4045ec:	f9000020 	str	x0, [x1]
  4045f0:	39400000 	ldrb	w0, [x0]
  4045f4:	12197801 	and	w1, w0, #0xffffffbf
  4045f8:	71017c1f 	cmp	w0, #0x5f
  4045fc:	7a401824 	ccmp	w1, #0x0, #0x4, ne  // ne = any
  404600:	540005e0 	b.eq	4046bc <_nl_explode_name+0x104>  // b.none
  404604:	7100b81f 	cmp	w0, #0x2e
  404608:	540005a0 	b.eq	4046bc <_nl_explode_name+0x104>  // b.none
  40460c:	aa1503e0 	mov	x0, x21
  404610:	52800806 	mov	w6, #0x40                  	// #64
  404614:	d503201f 	nop
  404618:	39400401 	ldrb	w1, [x0, #1]
  40461c:	91000413 	add	x19, x0, #0x1
  404620:	71017c3f 	cmp	w1, #0x5f
  404624:	7a401824 	ccmp	w1, #0x0, #0x4, ne  // ne = any
  404628:	54000560 	b.eq	4046d4 <_nl_explode_name+0x11c>  // b.none
  40462c:	7100b83f 	cmp	w1, #0x2e
  404630:	aa1303e0 	mov	x0, x19
  404634:	7a461024 	ccmp	w1, w6, #0x4, ne  // ne = any
  404638:	54ffff01 	b.ne	404618 <_nl_explode_name+0x60>  // b.any
  40463c:	eb1302bf 	cmp	x21, x19
  404640:	540003e0 	b.eq	4046bc <_nl_explode_name+0x104>  // b.none
  404644:	52800014 	mov	w20, #0x0                   	// #0
  404648:	7100b83f 	cmp	w1, #0x2e
  40464c:	54000720 	b.eq	404730 <_nl_explode_name+0x178>  // b.none
  404650:	7101003f 	cmp	w1, #0x40
  404654:	54000101 	b.ne	404674 <_nl_explode_name+0xbc>  // b.any
  404658:	aa1303e0 	mov	x0, x19
  40465c:	321d0281 	orr	w1, w20, #0x8
  404660:	3800141f 	strb	wzr, [x0], #1
  404664:	f9000300 	str	x0, [x24]
  404668:	39400660 	ldrb	w0, [x19, #1]
  40466c:	7100001f 	cmp	w0, #0x0
  404670:	1a941034 	csel	w20, w1, w20, ne  // ne = any
  404674:	f94002e0 	ldr	x0, [x23]
  404678:	b40000a0 	cbz	x0, 40468c <_nl_explode_name+0xd4>
  40467c:	39400001 	ldrb	w1, [x0]
  404680:	121d7a80 	and	w0, w20, #0xfffffffb
  404684:	7100003f 	cmp	w1, #0x0
  404688:	1a940014 	csel	w20, w0, w20, eq  // eq = none
  40468c:	f94002c0 	ldr	x0, [x22]
  404690:	b40000a0 	cbz	x0, 4046a4 <_nl_explode_name+0xec>
  404694:	39400001 	ldrb	w1, [x0]
  404698:	121e7a80 	and	w0, w20, #0xfffffffd
  40469c:	7100003f 	cmp	w1, #0x0
  4046a0:	1a940014 	csel	w20, w0, w20, eq  // eq = none
  4046a4:	2a1403e0 	mov	w0, w20
  4046a8:	a94153f3 	ldp	x19, x20, [sp, #16]
  4046ac:	a9425bf5 	ldp	x21, x22, [sp, #32]
  4046b0:	a94363f7 	ldp	x23, x24, [sp, #48]
  4046b4:	a8c67bfd 	ldp	x29, x30, [sp], #96
  4046b8:	d65f03c0 	ret
  4046bc:	aa1503e0 	mov	x0, x21
  4046c0:	52800014 	mov	w20, #0x0                   	// #0
  4046c4:	940041bf 	bl	414dc0 <__strlen>
  4046c8:	8b0002b3 	add	x19, x21, x0
  4046cc:	38606aa1 	ldrb	w1, [x21, x0]
  4046d0:	17ffffe0 	b	404650 <_nl_explode_name+0x98>
  4046d4:	eb1302bf 	cmp	x21, x19
  4046d8:	54ffff20 	b.eq	4046bc <_nl_explode_name+0x104>  // b.none
  4046dc:	71017c3f 	cmp	w1, #0x5f
  4046e0:	54fffb21 	b.ne	404644 <_nl_explode_name+0x8c>  // b.any
  4046e4:	3900027f 	strb	wzr, [x19]
  4046e8:	91000800 	add	x0, x0, #0x2
  4046ec:	f90002e0 	str	x0, [x23]
  4046f0:	39400661 	ldrb	w1, [x19, #1]
  4046f4:	aa0003f3 	mov	x19, x0
  4046f8:	12197822 	and	w2, w1, #0xffffffbf
  4046fc:	7100b83f 	cmp	w1, #0x2e
  404700:	12001c42 	and	w2, w2, #0xff
  404704:	7a401844 	ccmp	w2, #0x0, #0x4, ne  // ne = any
  404708:	540000e0 	b.eq	404724 <_nl_explode_name+0x16c>  // b.none
  40470c:	d503201f 	nop
  404710:	38401e61 	ldrb	w1, [x19, #1]!
  404714:	12197820 	and	w0, w1, #0xffffffbf
  404718:	7100b83f 	cmp	w1, #0x2e
  40471c:	7a401804 	ccmp	w0, #0x0, #0x4, ne  // ne = any
  404720:	54ffff81 	b.ne	404710 <_nl_explode_name+0x158>  // b.any
  404724:	52800094 	mov	w20, #0x4                   	// #4
  404728:	7100b83f 	cmp	w1, #0x2e
  40472c:	54fff921 	b.ne	404650 <_nl_explode_name+0x98>  // b.any
  404730:	aa1303e0 	mov	x0, x19
  404734:	f90023b9 	str	x25, [x29, #64]
  404738:	528017e2 	mov	w2, #0xbf                  	// #191
  40473c:	321f0299 	orr	w25, w20, #0x2
  404740:	3800141f 	strb	wzr, [x0], #1
  404744:	f90002c0 	str	x0, [x22]
  404748:	39400661 	ldrb	w1, [x19, #1]
  40474c:	6a02003f 	tst	w1, w2
  404750:	54000480 	b.eq	4047e0 <_nl_explode_name+0x228>  // b.none
  404754:	aa0003f5 	mov	x21, x0
  404758:	14000002 	b	404760 <_nl_explode_name+0x1a8>
  40475c:	aa1303f5 	mov	x21, x19
  404760:	394006a4 	ldrb	w4, [x21, #1]
  404764:	528017e3 	mov	w3, #0xbf                  	// #191
  404768:	910006b3 	add	x19, x21, #0x1
  40476c:	6a03009f 	tst	w4, w3
  404770:	54ffff61 	b.ne	40475c <_nl_explode_name+0x1a4>  // b.any
  404774:	f9002fa5 	str	x5, [x29, #88]
  404778:	eb13001f 	cmp	x0, x19
  40477c:	54000200 	b.eq	4047bc <_nl_explode_name+0x204>  // b.none
  404780:	f90027ba 	str	x26, [x29, #72]
  404784:	cb000261 	sub	x1, x19, x0
  404788:	97ffff3c 	bl	404478 <_nl_normalize_codeset>
  40478c:	aa0003fa 	mov	x26, x0
  404790:	f9402fa5 	ldr	x5, [x29, #88]
  404794:	f90000a0 	str	x0, [x5]
  404798:	b40002c0 	cbz	x0, 4047f0 <_nl_explode_name+0x238>
  40479c:	aa0003e1 	mov	x1, x0
  4047a0:	f94002c0 	ldr	x0, [x22]
  4047a4:	94004067 	bl	414940 <strcmp>
  4047a8:	34000100 	cbz	w0, 4047c8 <_nl_explode_name+0x210>
  4047ac:	32000694 	orr	w20, w20, #0x3
  4047b0:	394006a1 	ldrb	w1, [x21, #1]
  4047b4:	a9446bb9 	ldp	x25, x26, [x29, #64]
  4047b8:	17ffffa6 	b	404650 <_nl_explode_name+0x98>
  4047bc:	2a1903f4 	mov	w20, w25
  4047c0:	f94023b9 	ldr	x25, [x29, #64]
  4047c4:	17ffffa3 	b	404650 <_nl_explode_name+0x98>
  4047c8:	aa1a03e0 	mov	x0, x26
  4047cc:	94003b85 	bl	4135e0 <__free>
  4047d0:	2a1903f4 	mov	w20, w25
  4047d4:	394006a1 	ldrb	w1, [x21, #1]
  4047d8:	a9446bb9 	ldp	x25, x26, [x29, #64]
  4047dc:	17ffff9d 	b	404650 <_nl_explode_name+0x98>
  4047e0:	2a1903f4 	mov	w20, w25
  4047e4:	aa0003f3 	mov	x19, x0
  4047e8:	f94023b9 	ldr	x25, [x29, #64]
  4047ec:	17ffff99 	b	404650 <_nl_explode_name+0x98>
  4047f0:	12800014 	mov	w20, #0xffffffff            	// #-1
  4047f4:	a9446bb9 	ldp	x25, x26, [x29, #64]
  4047f8:	17ffffab 	b	4046a4 <_nl_explode_name+0xec>
  4047fc:	00000000 	.inst	0x00000000 ; undefined

0000000000404800 <__gettext_free_exp>:
  404800:	b4000340 	cbz	x0, 404868 <__gettext_free_exp+0x68>
  404804:	a9be7bfd 	stp	x29, x30, [sp, #-32]!
  404808:	910003fd 	mov	x29, sp
  40480c:	f9000bf3 	str	x19, [sp, #16]
  404810:	aa0003f3 	mov	x19, x0
  404814:	b9400000 	ldr	w0, [x0]
  404818:	7100081f 	cmp	w0, #0x2
  40481c:	54000160 	b.eq	404848 <__gettext_free_exp+0x48>  // b.none
  404820:	71000c1f 	cmp	w0, #0x3
  404824:	540000e0 	b.eq	404840 <__gettext_free_exp+0x40>  // b.none
  404828:	7100041f 	cmp	w0, #0x1
  40482c:	54000120 	b.eq	404850 <__gettext_free_exp+0x50>  // b.none
  404830:	aa1303e0 	mov	x0, x19
  404834:	f9400bf3 	ldr	x19, [sp, #16]
  404838:	a8c27bfd 	ldp	x29, x30, [sp], #32
  40483c:	14003b69 	b	4135e0 <__free>
  404840:	f9400e60 	ldr	x0, [x19, #24]
  404844:	97ffffef 	bl	404800 <__gettext_free_exp>
  404848:	f9400a60 	ldr	x0, [x19, #16]
  40484c:	97ffffed 	bl	404800 <__gettext_free_exp>
  404850:	f9400660 	ldr	x0, [x19, #8]
  404854:	97ffffeb 	bl	404800 <__gettext_free_exp>
  404858:	aa1303e0 	mov	x0, x19
  40485c:	f9400bf3 	ldr	x19, [sp, #16]
  404860:	a8c27bfd 	ldp	x29, x30, [sp], #32
  404864:	14003b5f 	b	4135e0 <__free>
  404868:	d65f03c0 	ret
  40486c:	d503201f 	nop

0000000000404870 <new_exp>:
  404870:	a9bc7bfd 	stp	x29, x30, [sp, #-64]!
  404874:	910003fd 	mov	x29, sp
  404878:	f9001ff8 	str	x24, [sp, #56]
  40487c:	2a0103f8 	mov	w24, w1
  404880:	34000740 	cbz	w0, 404968 <new_exp+0xf8>
  404884:	a9025bb5 	stp	x21, x22, [x29, #32]
  404888:	aa0203f5 	mov	x21, x2
  40488c:	51000402 	sub	w2, w0, #0x1
  404890:	a90153b3 	stp	x19, x20, [x29, #16]
  404894:	93407c53 	sxtw	x19, w2
  404898:	d37df276 	lsl	x22, x19, #3
  40489c:	f8737ab4 	ldr	x20, [x21, x19, lsl #3]
  4048a0:	b40004b4 	cbz	x20, 404934 <new_exp+0xc4>
  4048a4:	cb224ec3 	sub	x3, x22, w2, uxtw #3
  4048a8:	f9001bb7 	str	x23, [x29, #48]
  4048ac:	d10022a2 	sub	x2, x21, #0x8
  4048b0:	2a0003f7 	mov	w23, w0
  4048b4:	d10022c0 	sub	x0, x22, #0x8
  4048b8:	8b020062 	add	x2, x3, x2
  4048bc:	8b0002a0 	add	x0, x21, x0
  4048c0:	14000003 	b	4048cc <new_exp+0x5c>
  4048c4:	f85f8403 	ldr	x3, [x0], #-8
  4048c8:	b40004c3 	cbz	x3, 404960 <new_exp+0xf0>
  4048cc:	eb02001f 	cmp	x0, x2
  4048d0:	54ffffa1 	b.ne	4048c4 <new_exp+0x54>  // b.any
  4048d4:	d2800400 	mov	x0, #0x20                  	// #32
  4048d8:	940039aa 	bl	412f80 <__libc_malloc>
  4048dc:	b4000420 	cbz	x0, 404960 <new_exp+0xf0>
  4048e0:	8b160001 	add	x1, x0, x22
  4048e4:	29006017 	stp	w23, w24, [x0]
  4048e8:	d1000673 	sub	x19, x19, #0x1
  4048ec:	3100067f 	cmn	w19, #0x1
  4048f0:	f9000434 	str	x20, [x1, #8]
  4048f4:	d37df276 	lsl	x22, x19, #3
  4048f8:	54000100 	b.eq	404918 <new_exp+0xa8>  // b.none
  4048fc:	8b160001 	add	x1, x0, x22
  404900:	f8737ab4 	ldr	x20, [x21, x19, lsl #3]
  404904:	d1000673 	sub	x19, x19, #0x1
  404908:	3100067f 	cmn	w19, #0x1
  40490c:	f9000434 	str	x20, [x1, #8]
  404910:	d37df276 	lsl	x22, x19, #3
  404914:	54ffff41 	b.ne	4048fc <new_exp+0x8c>  // b.any
  404918:	a94153b3 	ldp	x19, x20, [x29, #16]
  40491c:	a9425bb5 	ldp	x21, x22, [x29, #32]
  404920:	f9401bb7 	ldr	x23, [x29, #48]
  404924:	f9401ff8 	ldr	x24, [sp, #56]
  404928:	a8c47bfd 	ldp	x29, x30, [sp], #64
  40492c:	d65f03c0 	ret
  404930:	f8737ab4 	ldr	x20, [x21, x19, lsl #3]
  404934:	aa1403e0 	mov	x0, x20
  404938:	d1000673 	sub	x19, x19, #0x1
  40493c:	97ffffb1 	bl	404800 <__gettext_free_exp>
  404940:	3100067f 	cmn	w19, #0x1
  404944:	54ffff61 	b.ne	404930 <new_exp+0xc0>  // b.any
  404948:	a94153b3 	ldp	x19, x20, [x29, #16]
  40494c:	a9425bb5 	ldp	x21, x22, [x29, #32]
  404950:	d2800000 	mov	x0, #0x0                   	// #0
  404954:	f9401ff8 	ldr	x24, [sp, #56]
  404958:	a8c47bfd 	ldp	x29, x30, [sp], #64
  40495c:	d65f03c0 	ret
  404960:	f9401bb7 	ldr	x23, [x29, #48]
  404964:	17fffff4 	b	404934 <new_exp+0xc4>
  404968:	d2800400 	mov	x0, #0x20                  	// #32
  40496c:	94003985 	bl	412f80 <__libc_malloc>
  404970:	b4ffff00 	cbz	x0, 404950 <new_exp+0xe0>
  404974:	2900601f 	stp	wzr, w24, [x0]
  404978:	17fffff7 	b	404954 <new_exp+0xe4>
  40497c:	d503201f 	nop

0000000000404980 <__gettextparse>:
  404980:	d121c3ff 	sub	sp, sp, #0x870
  404984:	b00003c1 	adrp	x1, 47d000 <__FRAME_END__+0xf8fc>
  404988:	f0000244 	adrp	x4, 44f000 <free_slotinfo+0x8>
  40498c:	91286021 	add	x1, x1, #0xa18
  404990:	52800003 	mov	w3, #0x0                   	// #0
  404994:	a9007bfd 	stp	x29, x30, [sp]
  404998:	910003fd 	mov	x29, sp
  40499c:	a90153f3 	stp	x19, x20, [sp, #16]
  4049a0:	9108a3b4 	add	x20, x29, #0x228
  4049a4:	a90363f7 	stp	x23, x24, [sp, #48]
  4049a8:	910263b3 	add	x19, x29, #0x98
  4049ac:	911d8098 	add	x24, x4, #0x760
  4049b0:	a9025bf5 	stp	x21, x22, [sp, #32]
  4049b4:	a9046bf9 	stp	x25, x26, [sp, #64]
  4049b8:	91008316 	add	x22, x24, #0x20
  4049bc:	a90573fb 	stp	x27, x28, [sp, #80]
  4049c0:	aa1403fa 	mov	x26, x20
  4049c4:	f90037a0 	str	x0, [x29, #104]
  4049c8:	aa1303fb 	mov	x27, x19
  4049cc:	f9400020 	ldr	x0, [x1]
  4049d0:	f90437a0 	str	x0, [x29, #2152]
  4049d4:	d2800000 	mov	x0, #0x0                   	// #0
  4049d8:	b90077bf 	str	wzr, [x29, #116]
  4049dc:	91016300 	add	x0, x24, #0x58
  4049e0:	790133bf 	strh	wzr, [x29, #152]
  4049e4:	12800035 	mov	w21, #0xfffffffe            	// #-2
  4049e8:	d2801917 	mov	x23, #0xc8                  	// #200
  4049ec:	f9003fa0 	str	x0, [x29, #120]
  4049f0:	38e3cb00 	ldrsb	w0, [x24, w3, sxtw]
  4049f4:	93407c61 	sxtw	x1, w3
  4049f8:	3100281f 	cmn	w0, #0xa
  4049fc:	540001a0 	b.eq	404a30 <__gettextparse+0xb0>  // b.none
  404a00:	31000abf 	cmn	w21, #0x2
  404a04:	54001a00 	b.eq	404d44 <__gettextparse+0x3c4>  // b.none
  404a08:	710002bf 	cmp	w21, #0x0
  404a0c:	54000f0d 	b.le	404bec <__gettextparse+0x26c>
  404a10:	91038302 	add	x2, x24, #0xe0
  404a14:	3875c842 	ldrb	w2, [x2, w21, sxtw]
  404a18:	0b020000 	add	w0, w0, w2
  404a1c:	7100d81f 	cmp	w0, #0x36
  404a20:	54000088 	b.hi	404a30 <__gettextparse+0xb0>  // b.pmore
  404a24:	38e0cac3 	ldrsb	w3, [x22, w0, sxtw]
  404a28:	6b02007f 	cmp	w3, w2
  404a2c:	54000c60 	b.eq	404bb8 <__gettextparse+0x238>  // b.none
  404a30:	91024300 	add	x0, x24, #0x90
  404a34:	38616803 	ldrb	w3, [x0, x1]
  404a38:	340002e3 	cbz	w3, 404a94 <__gettextparse+0x114>
  404a3c:	9102c300 	add	x0, x24, #0xb0
  404a40:	52800027 	mov	w7, #0x1                   	// #1
  404a44:	71001c7f 	cmp	w3, #0x7
  404a48:	3863c801 	ldrb	w1, [x0, w3, sxtw]
  404a4c:	4b0100e0 	sub	w0, w7, w1
  404a50:	f860da80 	ldr	x0, [x20, w0, sxtw #3]
  404a54:	54000da0 	b.eq	404c08 <__gettextparse+0x288>  // b.none
  404a58:	54000869 	b.ls	404b64 <__gettextparse+0x1e4>  // b.plast
  404a5c:	7100287f 	cmp	w3, #0xa
  404a60:	54001f80 	b.eq	404e50 <__gettextparse+0x4d0>  // b.none
  404a64:	54000ca9 	b.ls	404bf8 <__gettextparse+0x278>  // b.plast
  404a68:	7100307f 	cmp	w3, #0xc
  404a6c:	54001b20 	b.eq	404dd0 <__gettextparse+0x450>  // b.none
  404a70:	540020a3 	b.cc	404e84 <__gettextparse+0x504>  // b.lo, b.ul, b.last
  404a74:	7100347f 	cmp	w3, #0xd
  404a78:	54001941 	b.ne	404da0 <__gettextparse+0x420>  // b.any
  404a7c:	d1006299 	sub	x25, x20, #0x18
  404a80:	d1001a73 	sub	x19, x19, #0x6
  404a84:	12800003 	mov	w3, #0xffffffff            	// #-1
  404a88:	52800047 	mov	w7, #0x2                   	// #2
  404a8c:	f85f8280 	ldur	x0, [x20, #-8]
  404a90:	14000069 	b	404c34 <__gettextparse+0x2b4>
  404a94:	b94077a0 	ldr	w0, [x29, #116]
  404a98:	71000c1f 	cmp	w0, #0x3
  404a9c:	54000161 	b.ne	404ac8 <__gettextparse+0x148>  // b.any
  404aa0:	710002bf 	cmp	w21, #0x0
  404aa4:	54001b4d 	b.le	404e0c <__gettextparse+0x48c>
  404aa8:	38e16b00 	ldrsb	w0, [x24, x1]
  404aac:	12800035 	mov	w21, #0xfffffffe            	// #-2
  404ab0:	3100281f 	cmn	w0, #0xa
  404ab4:	54000101 	b.ne	404ad4 <__gettextparse+0x154>  // b.any
  404ab8:	eb1b027f 	cmp	x19, x27
  404abc:	540002a0 	b.eq	404b10 <__gettextparse+0x190>  // b.none
  404ac0:	789fee61 	ldrsh	x1, [x19, #-2]!
  404ac4:	d1002294 	sub	x20, x20, #0x8
  404ac8:	38e16b00 	ldrsb	w0, [x24, x1]
  404acc:	3100281f 	cmn	w0, #0xa
  404ad0:	54ffff40 	b.eq	404ab8 <__gettextparse+0x138>  // b.none
  404ad4:	11000400 	add	w0, w0, #0x1
  404ad8:	7100d81f 	cmp	w0, #0x36
  404adc:	54fffee8 	b.hi	404ab8 <__gettextparse+0x138>  // b.pmore
  404ae0:	38e0cac1 	ldrsb	w1, [x22, w0, sxtw]
  404ae4:	7100043f 	cmp	w1, #0x1
  404ae8:	54fffe81 	b.ne	404ab8 <__gettextparse+0x138>  // b.any
  404aec:	f9403fa1 	ldr	x1, [x29, #120]
  404af0:	3860c823 	ldrb	w3, [x1, w0, sxtw]
  404af4:	34fffe23 	cbz	w3, 404ab8 <__gettextparse+0x138>
  404af8:	f94033a0 	ldr	x0, [x29, #96]
  404afc:	91002294 	add	x20, x20, #0x8
  404b00:	f9000280 	str	x0, [x20]
  404b04:	52800060 	mov	w0, #0x3                   	// #3
  404b08:	b90077a0 	str	w0, [x29, #116]
  404b0c:	14000055 	b	404c60 <__gettextparse+0x2e0>
  404b10:	52800034 	mov	w20, #0x1                   	// #1
  404b14:	910263a0 	add	x0, x29, #0x98
  404b18:	eb00027f 	cmp	x19, x0
  404b1c:	54000060 	b.eq	404b28 <__gettextparse+0x1a8>  // b.none
  404b20:	aa1303e0 	mov	x0, x19
  404b24:	94003aaf 	bl	4135e0 <__free>
  404b28:	b00003c0 	adrp	x0, 47d000 <__FRAME_END__+0xf8fc>
  404b2c:	91286018 	add	x24, x0, #0xa18
  404b30:	f94437a2 	ldr	x2, [x29, #2152]
  404b34:	f9400301 	ldr	x1, [x24]
  404b38:	ca010041 	eor	x1, x2, x1
  404b3c:	2a1403e0 	mov	w0, w20
  404b40:	b5002c01 	cbnz	x1, 4050c0 <__gettextparse+0x740>
  404b44:	a9407bfd 	ldp	x29, x30, [sp]
  404b48:	a94153f3 	ldp	x19, x20, [sp, #16]
  404b4c:	a9425bf5 	ldp	x21, x22, [sp, #32]
  404b50:	a94363f7 	ldp	x23, x24, [sp, #48]
  404b54:	a9446bf9 	ldp	x25, x26, [sp, #64]
  404b58:	a94573fb 	ldp	x27, x28, [sp, #80]
  404b5c:	9121c3ff 	add	sp, sp, #0x870
  404b60:	d65f03c0 	ret
  404b64:	7100107f 	cmp	w3, #0x4
  404b68:	54001a00 	b.eq	404ea8 <__gettextparse+0x528>  // b.none
  404b6c:	54001128 	b.hi	404d90 <__gettextparse+0x410>  // b.pmore
  404b70:	7100087f 	cmp	w3, #0x2
  404b74:	540015e0 	b.eq	404e30 <__gettextparse+0x4b0>  // b.none
  404b78:	71000c7f 	cmp	w3, #0x3
  404b7c:	54001121 	b.ne	404da0 <__gettextparse+0x420>  // b.any
  404b80:	f85f0281 	ldur	x1, [x20, #-16]
  404b84:	d100a299 	sub	x25, x20, #0x28
  404b88:	f85e0282 	ldur	x2, [x20, #-32]
  404b8c:	d1002a73 	sub	x19, x19, #0xa
  404b90:	f9400280 	ldr	x0, [x20]
  404b94:	a90807a2 	stp	x2, x1, [x29, #128]
  404b98:	910203a2 	add	x2, x29, #0x80
  404b9c:	f9004ba0 	str	x0, [x29, #144]
  404ba0:	52800201 	mov	w1, #0x10                  	// #16
  404ba4:	2a0303e0 	mov	w0, w3
  404ba8:	97ffff32 	bl	404870 <new_exp>
  404bac:	12800003 	mov	w3, #0xffffffff            	// #-1
  404bb0:	52800047 	mov	w7, #0x2                   	// #2
  404bb4:	14000020 	b	404c34 <__gettextparse+0x2b4>
  404bb8:	f9403fa1 	ldr	x1, [x29, #120]
  404bbc:	3860c823 	ldrb	w3, [x1, w0, sxtw]
  404bc0:	34001003 	cbz	w3, 404dc0 <__gettextparse+0x440>
  404bc4:	b94077a1 	ldr	w1, [x29, #116]
  404bc8:	12800035 	mov	w21, #0xfffffffe            	// #-2
  404bcc:	f94033a0 	ldr	x0, [x29, #96]
  404bd0:	91002294 	add	x20, x20, #0x8
  404bd4:	7100003f 	cmp	w1, #0x0
  404bd8:	f9000280 	str	x0, [x20]
  404bdc:	1a9f07e0 	cset	w0, ne  // ne = any
  404be0:	4b000020 	sub	w0, w1, w0
  404be4:	b90077a0 	str	w0, [x29, #116]
  404be8:	1400001e 	b	404c60 <__gettextparse+0x2e0>
  404bec:	52800002 	mov	w2, #0x0                   	// #0
  404bf0:	52800015 	mov	w21, #0x0                   	// #0
  404bf4:	17ffff8a 	b	404a1c <__gettextparse+0x9c>
  404bf8:	7100207f 	cmp	w3, #0x8
  404bfc:	54000060 	b.eq	404c08 <__gettextparse+0x288>  // b.none
  404c00:	7100247f 	cmp	w3, #0x9
  404c04:	54000ce1 	b.ne	404da0 <__gettextparse+0x420>  // b.any
  404c08:	f85f0282 	ldur	x2, [x20, #-16]
  404c0c:	f9400280 	ldr	x0, [x20]
  404c10:	b85f8281 	ldur	w1, [x20, #-8]
  404c14:	a90803a2 	stp	x2, x0, [x29, #128]
  404c18:	910203a2 	add	x2, x29, #0x80
  404c1c:	52800040 	mov	w0, #0x2                   	// #2
  404c20:	d1006299 	sub	x25, x20, #0x18
  404c24:	97ffff13 	bl	404870 <new_exp>
  404c28:	d1001a73 	sub	x19, x19, #0x6
  404c2c:	12800003 	mov	w3, #0xffffffff            	// #-1
  404c30:	52800047 	mov	w7, #0x2                   	// #2
  404c34:	79c00262 	ldrsh	w2, [x19]
  404c38:	91002334 	add	x20, x25, #0x8
  404c3c:	f9000720 	str	x0, [x25, #8]
  404c40:	0b030041 	add	w1, w2, w3
  404c44:	7100d83f 	cmp	w1, #0x36
  404c48:	54000088 	b.hi	404c58 <__gettextparse+0x2d8>  // b.pmore
  404c4c:	38e1cac0 	ldrsb	w0, [x22, w1, sxtw]
  404c50:	6b02001f 	cmp	w0, w2
  404c54:	54000d60 	b.eq	404e00 <__gettextparse+0x480>  // b.none
  404c58:	91036300 	add	x0, x24, #0xd8
  404c5c:	38e7c803 	ldrsb	w3, [x0, w7, sxtw]
  404c60:	d37ffae1 	lsl	x1, x23, #1
  404c64:	79000663 	strh	w3, [x19, #2]
  404c68:	d1000820 	sub	x0, x1, #0x2
  404c6c:	91000a73 	add	x19, x19, #0x2
  404c70:	8b000360 	add	x0, x27, x0
  404c74:	eb00027f 	cmp	x19, x0
  404c78:	540005c3 	b.cc	404d30 <__gettextparse+0x3b0>  // b.lo, b.ul, b.last
  404c7c:	cb1b0274 	sub	x20, x19, x27
  404c80:	b90073a3 	str	w3, [x29, #112]
  404c84:	d284e1e0 	mov	x0, #0x270f                	// #9999
  404c88:	eb0002ff 	cmp	x23, x0
  404c8c:	9341fe94 	asr	x20, x20, #1
  404c90:	91000694 	add	x20, x20, #0x1
  404c94:	540012e8 	b.hi	404ef0 <__gettextparse+0x570>  // b.pmore
  404c98:	d284e206 	mov	x6, #0x2710                	// #10000
  404c9c:	eb06003f 	cmp	x1, x6
  404ca0:	9a869037 	csel	x23, x1, x6, ls  // ls = plast
  404ca4:	8b170ae0 	add	x0, x23, x23, lsl #2
  404ca8:	d37ff800 	lsl	x0, x0, #1
  404cac:	91001c00 	add	x0, x0, #0x7
  404cb0:	940038b4 	bl	412f80 <__libc_malloc>
  404cb4:	aa0003fc 	mov	x28, x0
  404cb8:	b40011c0 	cbz	x0, 404ef0 <__gettextparse+0x570>
  404cbc:	d37ffa93 	lsl	x19, x20, #1
  404cc0:	aa1b03e1 	mov	x1, x27
  404cc4:	aa1303e2 	mov	x2, x19
  404cc8:	8b170419 	add	x25, x0, x23, lsl #1
  404ccc:	d37df294 	lsl	x20, x20, #3
  404cd0:	97ffed60 	bl	400250 <.plt+0x10>
  404cd4:	aa1a03e1 	mov	x1, x26
  404cd8:	aa1403e2 	mov	x2, x20
  404cdc:	aa1903e0 	mov	x0, x25
  404ce0:	97ffed5c 	bl	400250 <.plt+0x10>
  404ce4:	910263a0 	add	x0, x29, #0x98
  404ce8:	d37ffafa 	lsl	x26, x23, #1
  404cec:	eb00037f 	cmp	x27, x0
  404cf0:	b94073a3 	ldr	w3, [x29, #112]
  404cf4:	540000a0 	b.eq	404d08 <__gettextparse+0x388>  // b.none
  404cf8:	b90073a3 	str	w3, [x29, #112]
  404cfc:	aa1b03e0 	mov	x0, x27
  404d00:	94003a38 	bl	4135e0 <__free>
  404d04:	b94073a3 	ldr	w3, [x29, #112]
  404d08:	d1000a73 	sub	x19, x19, #0x2
  404d0c:	d1000b5a 	sub	x26, x26, #0x2
  404d10:	8b130393 	add	x19, x28, x19
  404d14:	d1002294 	sub	x20, x20, #0x8
  404d18:	8b1a039a 	add	x26, x28, x26
  404d1c:	8b140334 	add	x20, x25, x20
  404d20:	eb1a027f 	cmp	x19, x26
  404d24:	54001a62 	b.cs	405070 <__gettextparse+0x6f0>  // b.hs, b.nlast
  404d28:	aa1903fa 	mov	x26, x25
  404d2c:	aa1c03fb 	mov	x27, x28
  404d30:	7100247f 	cmp	w3, #0x9
  404d34:	54ffe5e1 	b.ne	4049f0 <__gettextparse+0x70>  // b.any
  404d38:	aa1b03f3 	mov	x19, x27
  404d3c:	52800014 	mov	w20, #0x0                   	// #0
  404d40:	17ffff75 	b	404b14 <__gettextparse+0x194>
  404d44:	f94037a2 	ldr	x2, [x29, #104]
  404d48:	f9400043 	ldr	x3, [x2]
  404d4c:	39400062 	ldrb	w2, [x3]
  404d50:	35000082 	cbnz	w2, 404d60 <__gettextparse+0x3e0>
  404d54:	14000032 	b	404e1c <__gettextparse+0x49c>
  404d58:	38401c62 	ldrb	w2, [x3, #1]!
  404d5c:	34000602 	cbz	w2, 404e1c <__gettextparse+0x49c>
  404d60:	7100805f 	cmp	w2, #0x20
  404d64:	7a491844 	ccmp	w2, #0x9, #0x4, ne  // ne = any
  404d68:	54ffff80 	b.eq	404d58 <__gettextparse+0x3d8>  // b.none
  404d6c:	91000467 	add	x7, x3, #0x1
  404d70:	2a0203f5 	mov	w21, w2
  404d74:	7101f05f 	cmp	w2, #0x7c
  404d78:	54000b09 	b.ls	404ed8 <__gettextparse+0x558>  // b.plast
  404d7c:	f94037a2 	ldr	x2, [x29, #104]
  404d80:	52802015 	mov	w21, #0x100                 	// #256
  404d84:	f9000047 	str	x7, [x2]
  404d88:	52800022 	mov	w2, #0x1                   	// #1
  404d8c:	17ffff23 	b	404a18 <__gettextparse+0x98>
  404d90:	7100147f 	cmp	w3, #0x5
  404d94:	54000960 	b.eq	404ec0 <__gettextparse+0x540>  // b.none
  404d98:	7100187f 	cmp	w3, #0x6
  404d9c:	54fff360 	b.eq	404c08 <__gettextparse+0x288>  // b.none
  404da0:	91030307 	add	x7, x24, #0xc0
  404da4:	91034302 	add	x2, x24, #0xd0
  404da8:	cb010e99 	sub	x25, x20, x1, lsl #3
  404dac:	cb010673 	sub	x19, x19, x1, lsl #1
  404db0:	3863c8e7 	ldrb	w7, [x7, w3, sxtw]
  404db4:	510040e7 	sub	w7, w7, #0x10
  404db8:	38e7c843 	ldrsb	w3, [x2, w7, sxtw]
  404dbc:	17ffff9e 	b	404c34 <__gettextparse+0x2b4>
  404dc0:	aa1403f9 	mov	x25, x20
  404dc4:	128001e7 	mov	w7, #0xfffffff0            	// #-16
  404dc8:	f9400680 	ldr	x0, [x20, #8]
  404dcc:	17ffff9a 	b	404c34 <__gettextparse+0x2b4>
  404dd0:	d2800002 	mov	x2, #0x0                   	// #0
  404dd4:	2a0703e1 	mov	w1, w7
  404dd8:	52800000 	mov	w0, #0x0                   	// #0
  404ddc:	d1002299 	sub	x25, x20, #0x8
  404de0:	97fffea4 	bl	404870 <new_exp>
  404de4:	d1000a73 	sub	x19, x19, #0x2
  404de8:	b40013e0 	cbz	x0, 405064 <__gettextparse+0x6e4>
  404dec:	f9400281 	ldr	x1, [x20]
  404df0:	12800003 	mov	w3, #0xffffffff            	// #-1
  404df4:	52800047 	mov	w7, #0x2                   	// #2
  404df8:	f9000401 	str	x1, [x0, #8]
  404dfc:	17ffff8e 	b	404c34 <__gettextparse+0x2b4>
  404e00:	f9403fa0 	ldr	x0, [x29, #120]
  404e04:	3861c803 	ldrb	w3, [x0, w1, sxtw]
  404e08:	17ffff96 	b	404c60 <__gettextparse+0x2e0>
  404e0c:	54ffe5e1 	b.ne	404ac8 <__gettextparse+0x148>  // b.any
  404e10:	aa1b03f3 	mov	x19, x27
  404e14:	52800034 	mov	w20, #0x1                   	// #1
  404e18:	17ffff3f 	b	404b14 <__gettextparse+0x194>
  404e1c:	f94037a2 	ldr	x2, [x29, #104]
  404e20:	52800015 	mov	w21, #0x0                   	// #0
  404e24:	f9000043 	str	x3, [x2]
  404e28:	52800002 	mov	w2, #0x0                   	// #0
  404e2c:	17fffefc 	b	404a1c <__gettextparse+0x9c>
  404e30:	f9400281 	ldr	x1, [x20]
  404e34:	b4001401 	cbz	x1, 4050b4 <__gettextparse+0x734>
  404e38:	f94037a2 	ldr	x2, [x29, #104]
  404e3c:	d1002299 	sub	x25, x20, #0x8
  404e40:	d1000a73 	sub	x19, x19, #0x2
  404e44:	12800123 	mov	w3, #0xfffffff6            	// #-10
  404e48:	f9000441 	str	x1, [x2, #8]
  404e4c:	17ffff7a 	b	404c34 <__gettextparse+0x2b4>
  404e50:	aa1403f9 	mov	x25, x20
  404e54:	2a0703e0 	mov	w0, w7
  404e58:	12800003 	mov	w3, #0xffffffff            	// #-1
  404e5c:	910203a2 	add	x2, x29, #0x80
  404e60:	b90073a3 	str	w3, [x29, #112]
  404e64:	52800041 	mov	w1, #0x2                   	// #2
  404e68:	f85f0727 	ldr	x7, [x25], #-16
  404e6c:	d1001273 	sub	x19, x19, #0x4
  404e70:	f90043a7 	str	x7, [x29, #128]
  404e74:	97fffe7f 	bl	404870 <new_exp>
  404e78:	52800047 	mov	w7, #0x2                   	// #2
  404e7c:	b94073a3 	ldr	w3, [x29, #112]
  404e80:	17ffff6d 	b	404c34 <__gettextparse+0x2b4>
  404e84:	d2800002 	mov	x2, #0x0                   	// #0
  404e88:	52800001 	mov	w1, #0x0                   	// #0
  404e8c:	52800000 	mov	w0, #0x0                   	// #0
  404e90:	97fffe78 	bl	404870 <new_exp>
  404e94:	d1002299 	sub	x25, x20, #0x8
  404e98:	d1000a73 	sub	x19, x19, #0x2
  404e9c:	12800003 	mov	w3, #0xffffffff            	// #-1
  404ea0:	52800047 	mov	w7, #0x2                   	// #2
  404ea4:	17ffff64 	b	404c34 <__gettextparse+0x2b4>
  404ea8:	f85f0281 	ldur	x1, [x20, #-16]
  404eac:	910203a2 	add	x2, x29, #0x80
  404eb0:	f9400280 	ldr	x0, [x20]
  404eb4:	a90803a1 	stp	x1, x0, [x29, #128]
  404eb8:	528001e1 	mov	w1, #0xf                   	// #15
  404ebc:	17ffff58 	b	404c1c <__gettextparse+0x29c>
  404ec0:	f85f0281 	ldur	x1, [x20, #-16]
  404ec4:	910203a2 	add	x2, x29, #0x80
  404ec8:	f9400280 	ldr	x0, [x20]
  404ecc:	a90803a1 	stp	x1, x0, [x29, #128]
  404ed0:	528001c1 	mov	w1, #0xe                   	// #14
  404ed4:	17ffff52 	b	404c1c <__gettextparse+0x29c>
  404ed8:	f0000248 	adrp	x8, 44f000 <free_slotinfo+0x8>
  404edc:	911b8108 	add	x8, x8, #0x6e0
  404ee0:	38624904 	ldrb	w4, [x8, w2, uxtw]
  404ee4:	10000065 	adr	x5, 404ef0 <__gettextparse+0x570>
  404ee8:	8b2488a4 	add	x4, x5, w4, sxtb #2
  404eec:	d61f0080 	br	x4
  404ef0:	aa1b03f3 	mov	x19, x27
  404ef4:	52800054 	mov	w20, #0x2                   	// #2
  404ef8:	17ffff07 	b	404b14 <__gettextparse+0x194>
  404efc:	39400462 	ldrb	w2, [x3, #1]
  404f00:	7100f45f 	cmp	w2, #0x3d
  404f04:	54000d40 	b.eq	4050ac <__gettextparse+0x72c>  // b.none
  404f08:	d2800122 	mov	x2, #0x9                   	// #9
  404f0c:	f94037a3 	ldr	x3, [x29, #104]
  404f10:	52802075 	mov	w21, #0x103                 	// #259
  404f14:	f9000067 	str	x7, [x3]
  404f18:	f94033a3 	ldr	x3, [x29, #96]
  404f1c:	b3407c43 	bfxil	x3, x2, #0, #32
  404f20:	528000e2 	mov	w2, #0x7                   	// #7
  404f24:	f90033a3 	str	x3, [x29, #96]
  404f28:	17fffebc 	b	404a18 <__gettextparse+0x98>
  404f2c:	39400462 	ldrb	w2, [x3, #1]
  404f30:	7100f45f 	cmp	w2, #0x3d
  404f34:	54fff241 	b.ne	404d7c <__gettextparse+0x3fc>  // b.any
  404f38:	d2800182 	mov	x2, #0xc                   	// #12
  404f3c:	f94033a4 	ldr	x4, [x29, #96]
  404f40:	91000863 	add	x3, x3, #0x2
  404f44:	52802055 	mov	w21, #0x102                 	// #258
  404f48:	b3407c44 	bfxil	x4, x2, #0, #32
  404f4c:	f94037a2 	ldr	x2, [x29, #104]
  404f50:	f90033a4 	str	x4, [x29, #96]
  404f54:	f9000043 	str	x3, [x2]
  404f58:	528000c2 	mov	w2, #0x6                   	// #6
  404f5c:	17fffeaf 	b	404a18 <__gettextparse+0x98>
  404f60:	d28000c2 	mov	x2, #0x6                   	// #6
  404f64:	f94037a3 	ldr	x3, [x29, #104]
  404f68:	52802095 	mov	w21, #0x104                 	// #260
  404f6c:	f9000067 	str	x7, [x3]
  404f70:	f94033a3 	ldr	x3, [x29, #96]
  404f74:	b3407c43 	bfxil	x3, x2, #0, #32
  404f78:	52800102 	mov	w2, #0x8                   	// #8
  404f7c:	f90033a3 	str	x3, [x29, #96]
  404f80:	17fffea6 	b	404a18 <__gettextparse+0x98>
  404f84:	d2800062 	mov	x2, #0x3                   	// #3
  404f88:	f94037a3 	ldr	x3, [x29, #104]
  404f8c:	528020b5 	mov	w21, #0x105                 	// #261
  404f90:	f9000067 	str	x7, [x3]
  404f94:	f94033a3 	ldr	x3, [x29, #96]
  404f98:	b3407c43 	bfxil	x3, x2, #0, #32
  404f9c:	52800122 	mov	w2, #0x9                   	// #9
  404fa0:	f90033a3 	str	x3, [x29, #96]
  404fa4:	17fffe9d 	b	404a18 <__gettextparse+0x98>
  404fa8:	39400468 	ldrb	w8, [x3, #1]
  404fac:	6b02011f 	cmp	w8, w2
  404fb0:	54ffee61 	b.ne	404d7c <__gettextparse+0x3fc>  // b.any
  404fb4:	91000867 	add	x7, x3, #0x2
  404fb8:	f94037a2 	ldr	x2, [x29, #104]
  404fbc:	f9000047 	str	x7, [x2]
  404fc0:	17fffe92 	b	404a08 <__gettextparse+0x88>
  404fc4:	d28000a2 	mov	x2, #0x5                   	// #5
  404fc8:	17fffff0 	b	404f88 <__gettextparse+0x608>
  404fcc:	39400462 	ldrb	w2, [x3, #1]
  404fd0:	7100f45f 	cmp	w2, #0x3d
  404fd4:	54000540 	b.eq	40507c <__gettextparse+0x6fc>  // b.none
  404fd8:	f94037a2 	ldr	x2, [x29, #104]
  404fdc:	52800435 	mov	w21, #0x21                  	// #33
  404fe0:	f9000047 	str	x7, [x2]
  404fe4:	52800142 	mov	w2, #0xa                   	// #10
  404fe8:	17fffe8c 	b	404a18 <__gettextparse+0x98>
  404fec:	39400462 	ldrb	w2, [x3, #1]
  404ff0:	7100f45f 	cmp	w2, #0x3d
  404ff4:	54000480 	b.eq	405084 <__gettextparse+0x704>  // b.none
  404ff8:	d2800102 	mov	x2, #0x8                   	// #8
  404ffc:	17ffffc4 	b	404f0c <__gettextparse+0x58c>
  405000:	d2800082 	mov	x2, #0x4                   	// #4
  405004:	17ffffe1 	b	404f88 <__gettextparse+0x608>
  405008:	39400468 	ldrb	w8, [x3, #1]
  40500c:	5100c042 	sub	w2, w2, #0x30
  405010:	5100c103 	sub	w3, w8, #0x30
  405014:	93407c42 	sxtw	x2, w2
  405018:	12001c68 	and	w8, w3, #0xff
  40501c:	7100251f 	cmp	w8, #0x9
  405020:	54000128 	b.hi	405044 <__gettextparse+0x6c4>  // b.pmore
  405024:	38401ce8 	ldrb	w8, [x7, #1]!
  405028:	93407c69 	sxtw	x9, w3
  40502c:	8b020842 	add	x2, x2, x2, lsl #2
  405030:	5100c103 	sub	w3, w8, #0x30
  405034:	12001c68 	and	w8, w3, #0xff
  405038:	8b020522 	add	x2, x9, x2, lsl #1
  40503c:	7100251f 	cmp	w8, #0x9
  405040:	54ffff29 	b.ls	405024 <__gettextparse+0x6a4>  // b.plast
  405044:	f90033a2 	str	x2, [x29, #96]
  405048:	528020d5 	mov	w21, #0x106                 	// #262
  40504c:	f94037a2 	ldr	x2, [x29, #104]
  405050:	f9000047 	str	x7, [x2]
  405054:	52800162 	mov	w2, #0xb                   	// #11
  405058:	17fffe70 	b	404a18 <__gettextparse+0x98>
  40505c:	d28000e2 	mov	x2, #0x7                   	// #7
  405060:	17ffffc1 	b	404f64 <__gettextparse+0x5e4>
  405064:	12800003 	mov	w3, #0xffffffff            	// #-1
  405068:	52800047 	mov	w7, #0x2                   	// #2
  40506c:	17fffef2 	b	404c34 <__gettextparse+0x2b4>
  405070:	aa1c03f3 	mov	x19, x28
  405074:	52800034 	mov	w20, #0x1                   	// #1
  405078:	17fffeaa 	b	404b20 <__gettextparse+0x1a0>
  40507c:	d28001a2 	mov	x2, #0xd                   	// #13
  405080:	17ffffaf 	b	404f3c <__gettextparse+0x5bc>
  405084:	d2800142 	mov	x2, #0xa                   	// #10
  405088:	f94033a4 	ldr	x4, [x29, #96]
  40508c:	91000863 	add	x3, x3, #0x2
  405090:	52802075 	mov	w21, #0x103                 	// #259
  405094:	b3407c44 	bfxil	x4, x2, #0, #32
  405098:	f94037a2 	ldr	x2, [x29, #104]
  40509c:	f90033a4 	str	x4, [x29, #96]
  4050a0:	f9000043 	str	x3, [x2]
  4050a4:	528000e2 	mov	w2, #0x7                   	// #7
  4050a8:	17fffe5c 	b	404a18 <__gettextparse+0x98>
  4050ac:	d2800162 	mov	x2, #0xb                   	// #11
  4050b0:	17fffff6 	b	405088 <__gettextparse+0x708>
  4050b4:	aa1b03f3 	mov	x19, x27
  4050b8:	2a0703f4 	mov	w20, w7
  4050bc:	17fffe96 	b	404b14 <__gettextparse+0x194>
  4050c0:	940053b2 	bl	419f88 <__stack_chk_fail>
  4050c4:	00000000 	.inst	0x00000000 ; undefined

00000000004050c8 <__gettext_extract_plural>:
  4050c8:	a9ba7bfd 	stp	x29, x30, [sp, #-96]!
  4050cc:	910003fd 	mov	x29, sp
  4050d0:	f9000ff4 	str	x20, [sp, #24]
  4050d4:	900003d4 	adrp	x20, 47d000 <__FRAME_END__+0xf8fc>
  4050d8:	91286283 	add	x3, x20, #0xa18
  4050dc:	a902dff6 	stp	x22, x23, [sp, #40]
  4050e0:	f9400064 	ldr	x4, [x3]
  4050e4:	f9002fa4 	str	x4, [x29, #88]
  4050e8:	d2800004 	mov	x4, #0x0                   	// #0
  4050ec:	aa0103f7 	mov	x23, x1
  4050f0:	aa0203f6 	mov	x22, x2
  4050f4:	b4000220 	cbz	x0, 405138 <__gettext_extract_plural+0x70>
  4050f8:	f9000bb3 	str	x19, [x29, #16]
  4050fc:	d0000241 	adrp	x1, 44f000 <free_slotinfo+0x8>
  405100:	f90013b5 	str	x21, [x29, #32]
  405104:	9126a021 	add	x1, x1, #0x9a8
  405108:	aa0003f3 	mov	x19, x0
  40510c:	94004105 	bl	415520 <strstr>
  405110:	d0000241 	adrp	x1, 44f000 <free_slotinfo+0x8>
  405114:	aa0003f5 	mov	x21, x0
  405118:	9126c021 	add	x1, x1, #0x9b0
  40511c:	aa1303e0 	mov	x0, x19
  405120:	94004100 	bl	415520 <strstr>
  405124:	f10002bf 	cmp	x21, #0x0
  405128:	fa401804 	ccmp	x0, #0x0, #0x4, ne  // ne = any
  40512c:	54000221 	b.ne	405170 <__gettext_extract_plural+0xa8>  // b.any
  405130:	f9400bb3 	ldr	x19, [x29, #16]
  405134:	f94013b5 	ldr	x21, [x29, #32]
  405138:	d0000240 	adrp	x0, 44f000 <free_slotinfo+0x8>
  40513c:	91252000 	add	x0, x0, #0x948
  405140:	f90002e0 	str	x0, [x23]
  405144:	d2800040 	mov	x0, #0x2                   	// #2
  405148:	f90002c0 	str	x0, [x22]
  40514c:	91286294 	add	x20, x20, #0xa18
  405150:	f9402fa1 	ldr	x1, [x29, #88]
  405154:	f9400280 	ldr	x0, [x20]
  405158:	ca000020 	eor	x0, x1, x0
  40515c:	b50005a0 	cbnz	x0, 405210 <__gettext_extract_plural+0x148>
  405160:	f9400ff4 	ldr	x20, [sp, #24]
  405164:	a942dff6 	ldp	x22, x23, [sp, #40]
  405168:	a8c67bfd 	ldp	x29, x30, [sp], #96
  40516c:	d65f03c0 	ret
  405170:	39402401 	ldrb	w1, [x0, #9]
  405174:	91002413 	add	x19, x0, #0x9
  405178:	34fffdc1 	cbz	w1, 405130 <__gettext_extract_plural+0x68>
  40517c:	900003c2 	adrp	x2, 47d000 <__FRAME_END__+0xf8fc>
  405180:	f947d442 	ldr	x2, [x2, #4008]
  405184:	d53bd043 	mrs	x3, tpidr_el0
  405188:	d37f1c20 	ubfiz	x0, x1, #1, #8
  40518c:	f8626862 	ldr	x2, [x3, x2]
  405190:	78606840 	ldrh	w0, [x2, x0]
  405194:	376800a0 	tbnz	w0, #13, 4051a8 <__gettext_extract_plural+0xe0>
  405198:	14000007 	b	4051b4 <__gettext_extract_plural+0xec>
  40519c:	d37f1c20 	ubfiz	x0, x1, #1, #8
  4051a0:	78606840 	ldrh	w0, [x2, x0]
  4051a4:	36680080 	tbz	w0, #13, 4051b4 <__gettext_extract_plural+0xec>
  4051a8:	38401e61 	ldrb	w1, [x19, #1]!
  4051ac:	35ffff81 	cbnz	w1, 40519c <__gettext_extract_plural+0xd4>
  4051b0:	17ffffe0 	b	405130 <__gettext_extract_plural+0x68>
  4051b4:	5100c021 	sub	w1, w1, #0x30
  4051b8:	12001c21 	and	w1, w1, #0xff
  4051bc:	7100243f 	cmp	w1, #0x9
  4051c0:	54fffb88 	b.hi	405130 <__gettext_extract_plural+0x68>  // b.pmore
  4051c4:	910103a1 	add	x1, x29, #0x40
  4051c8:	52800142 	mov	w2, #0xa                   	// #10
  4051cc:	aa1303e0 	mov	x0, x19
  4051d0:	94000454 	bl	406320 <__strtoul>
  4051d4:	f94023a1 	ldr	x1, [x29, #64]
  4051d8:	eb13003f 	cmp	x1, x19
  4051dc:	54fffaa0 	b.eq	405130 <__gettext_extract_plural+0x68>  // b.none
  4051e0:	910183a1 	add	x1, x29, #0x60
  4051e4:	91001eb5 	add	x21, x21, #0x7
  4051e8:	f90002c0 	str	x0, [x22]
  4051ec:	f81e8c35 	str	x21, [x1, #-24]!
  4051f0:	aa0103e0 	mov	x0, x1
  4051f4:	97fffde3 	bl	404980 <__gettextparse>
  4051f8:	35fff9c0 	cbnz	w0, 405130 <__gettext_extract_plural+0x68>
  4051fc:	f9402ba0 	ldr	x0, [x29, #80]
  405200:	f9400bb3 	ldr	x19, [x29, #16]
  405204:	f94013b5 	ldr	x21, [x29, #32]
  405208:	f90002e0 	str	x0, [x23]
  40520c:	17ffffd0 	b	40514c <__gettext_extract_plural+0x84>
  405210:	f9000bb3 	str	x19, [x29, #16]
  405214:	f90013b5 	str	x21, [x29, #32]
  405218:	9400535c 	bl	419f88 <__stack_chk_fail>
  40521c:	00000000 	.inst	0x00000000 ; undefined

0000000000405220 <__hash_string>:
  405220:	aa0003e2 	mov	x2, x0
  405224:	d2800000 	mov	x0, #0x0                   	// #0
  405228:	14000007 	b	405244 <__hash_string+0x24>
  40522c:	8b001060 	add	x0, x3, x0, lsl #4
  405230:	92640c01 	and	x1, x0, #0xf0000000
  405234:	9260ec03 	and	x3, x0, #0xffffffff0fffffff
  405238:	f100003f 	cmp	x1, #0x0
  40523c:	ca416061 	eor	x1, x3, x1, lsr #24
  405240:	9a801020 	csel	x0, x1, x0, ne  // ne = any
  405244:	39400041 	ldrb	w1, [x2]
  405248:	91000442 	add	x2, x2, #0x1
  40524c:	92401c23 	and	x3, x1, #0xff
  405250:	35fffee1 	cbnz	w1, 40522c <__hash_string+0xc>
  405254:	d65f03c0 	ret
	...

0000000000405260 <setjmp>:
  405260:	d2800021 	mov	x1, #0x1                   	// #1
  405264:	14000007 	b	405280 <__sigsetjmp>
  405268:	d503201f 	nop
  40526c:	d503201f 	nop

0000000000405270 <_setjmp>:
  405270:	d2800001 	mov	x1, #0x0                   	// #0
  405274:	14000003 	b	405280 <__sigsetjmp>
  405278:	d503201f 	nop
  40527c:	d503201f 	nop

0000000000405280 <__sigsetjmp>:
  405280:	a9005013 	stp	x19, x20, [x0]
  405284:	a9015815 	stp	x21, x22, [x0, #16]
  405288:	a9026017 	stp	x23, x24, [x0, #32]
  40528c:	a9036819 	stp	x25, x26, [x0, #48]
  405290:	a904701b 	stp	x27, x28, [x0, #64]
  405294:	900003c2 	adrp	x2, 47d000 <__FRAME_END__+0xf8fc>
  405298:	f9451043 	ldr	x3, [x2, #2592]
  40529c:	ca0303c4 	eor	x4, x30, x3
  4052a0:	a905101d 	stp	x29, x4, [x0, #80]
  4052a4:	d503201f 	nop
  4052a8:	6d072408 	stp	d8, d9, [x0, #112]
  4052ac:	6d082c0a 	stp	d10, d11, [x0, #128]
  4052b0:	6d09340c 	stp	d12, d13, [x0, #144]
  4052b4:	6d0a3c0e 	stp	d14, d15, [x0, #160]
  4052b8:	910003e4 	mov	x4, sp
  4052bc:	900003c2 	adrp	x2, 47d000 <__FRAME_END__+0xf8fc>
  4052c0:	f9451043 	ldr	x3, [x2, #2592]
  4052c4:	ca030085 	eor	x5, x4, x3
  4052c8:	f9003405 	str	x5, [x0, #104]
  4052cc:	14000001 	b	4052d0 <__sigjmp_save>

00000000004052d0 <__sigjmp_save>:
  4052d0:	a9be7bfd 	stp	x29, x30, [sp, #-32]!
  4052d4:	910003fd 	mov	x29, sp
  4052d8:	f9000bf3 	str	x19, [sp, #16]
  4052dc:	aa0003f3 	mov	x19, x0
  4052e0:	340000e1 	cbz	w1, 4052fc <__sigjmp_save+0x2c>
  4052e4:	9102e002 	add	x2, x0, #0xb8
  4052e8:	d2800001 	mov	x1, #0x0                   	// #0
  4052ec:	52800000 	mov	w0, #0x0                   	// #0
  4052f0:	94000042 	bl	4053f8 <__sigprocmask>
  4052f4:	7100001f 	cmp	w0, #0x0
  4052f8:	1a9f17e1 	cset	w1, eq  // eq = none
  4052fc:	b900b261 	str	w1, [x19, #176]
  405300:	52800000 	mov	w0, #0x0                   	// #0
  405304:	f9400bf3 	ldr	x19, [sp, #16]
  405308:	a8c27bfd 	ldp	x29, x30, [sp], #32
  40530c:	d65f03c0 	ret

0000000000405310 <raise>:
  405310:	a9ad7bfd 	stp	x29, x30, [sp, #-304]!
  405314:	d2801002 	mov	x2, #0x80                  	// #128
  405318:	910003fd 	mov	x29, sp
  40531c:	a90153f3 	stp	x19, x20, [sp, #16]
  405320:	900003d3 	adrp	x19, 47d000 <__FRAME_END__+0xf8fc>
  405324:	91286261 	add	x1, x19, #0xa18
  405328:	2a0003f4 	mov	w20, w0
  40532c:	f9400020 	ldr	x0, [x1]
  405330:	f90097a0 	str	x0, [x29, #296]
  405334:	d2800000 	mov	x0, #0x0                   	// #0
  405338:	d0000241 	adrp	x1, 44f000 <free_slotinfo+0x8>
  40533c:	9102a3a0 	add	x0, x29, #0xa8
  405340:	91270021 	add	x1, x1, #0x9c0
  405344:	97ffebc3 	bl	400250 <.plt+0x10>
  405348:	b25ff7e1 	mov	x1, #0xfffffffe7fffffff    	// #-6442450945
  40534c:	d2800000 	mov	x0, #0x0                   	// #0
  405350:	f90057a1 	str	x1, [x29, #168]
  405354:	9100a3a2 	add	x2, x29, #0x28
  405358:	d2800103 	mov	x3, #0x8                   	// #8
  40535c:	d28010e8 	mov	x8, #0x87                  	// #135
  405360:	9102a3a1 	add	x1, x29, #0xa8
  405364:	d4000001 	svc	#0x0
  405368:	d2801588 	mov	x8, #0xac                  	// #172
  40536c:	d4000001 	svc	#0x0
  405370:	d2801648 	mov	x8, #0xb2                  	// #178
  405374:	aa0003e3 	mov	x3, x0
  405378:	d4000001 	svc	#0x0
  40537c:	d2801068 	mov	x8, #0x83                  	// #131
  405380:	93407c01 	sxtw	x1, w0
  405384:	93407e82 	sxtw	x2, w20
  405388:	93407c60 	sxtw	x0, w3
  40538c:	d4000001 	svc	#0x0
  405390:	b140041f 	cmn	x0, #0x1, lsl #12
  405394:	54000228 	b.hi	4053d8 <raise+0xc8>  // b.pmore
  405398:	2a0003e4 	mov	w4, w0
  40539c:	d2800040 	mov	x0, #0x2                   	// #2
  4053a0:	9100a3a1 	add	x1, x29, #0x28
  4053a4:	d2800002 	mov	x2, #0x0                   	// #0
  4053a8:	d2800103 	mov	x3, #0x8                   	// #8
  4053ac:	d28010e8 	mov	x8, #0x87                  	// #135
  4053b0:	d4000001 	svc	#0x0
  4053b4:	91286273 	add	x19, x19, #0xa18
  4053b8:	2a0403e0 	mov	w0, w4
  4053bc:	f94097a2 	ldr	x2, [x29, #296]
  4053c0:	f9400261 	ldr	x1, [x19]
  4053c4:	ca010041 	eor	x1, x2, x1
  4053c8:	b5000161 	cbnz	x1, 4053f4 <raise+0xe4>
  4053cc:	a94153f3 	ldp	x19, x20, [sp, #16]
  4053d0:	a8d37bfd 	ldp	x29, x30, [sp], #304
  4053d4:	d65f03c0 	ret
  4053d8:	900003c1 	adrp	x1, 47d000 <__FRAME_END__+0xf8fc>
  4053dc:	f947c421 	ldr	x1, [x1, #3976]
  4053e0:	d53bd042 	mrs	x2, tpidr_el0
  4053e4:	4b0003e0 	neg	w0, w0
  4053e8:	12800004 	mov	w4, #0xffffffff            	// #-1
  4053ec:	b8216840 	str	w0, [x2, x1]
  4053f0:	17ffffeb 	b	40539c <raise+0x8c>
  4053f4:	940052e5 	bl	419f88 <__stack_chk_fail>

00000000004053f8 <__sigprocmask>:
  4053f8:	a9b47bfd 	stp	x29, x30, [sp, #-192]!
  4053fc:	910003fd 	mov	x29, sp
  405400:	a90153f3 	stp	x19, x20, [sp, #16]
  405404:	900003d3 	adrp	x19, 47d000 <__FRAME_END__+0xf8fc>
  405408:	91286263 	add	x3, x19, #0xa18
  40540c:	aa0203f4 	mov	x20, x2
  405410:	f9400064 	ldr	x4, [x3]
  405414:	f9005fa4 	str	x4, [x29, #184]
  405418:	d2800004 	mov	x4, #0x0                   	// #0
  40541c:	f90013f5 	str	x21, [sp, #32]
  405420:	d2800002 	mov	x2, #0x0                   	// #0
  405424:	2a0003f5 	mov	w21, w0
  405428:	b40000e1 	cbz	x1, 405444 <__sigprocmask+0x4c>
  40542c:	f90017b6 	str	x22, [x29, #40]
  405430:	f9400036 	ldr	x22, [x1]
  405434:	f26106df 	tst	x22, #0x180000000
  405438:	54000281 	b.ne	405488 <__sigprocmask+0x90>  // b.any
  40543c:	f94017b6 	ldr	x22, [x29, #40]
  405440:	aa0103e2 	mov	x2, x1
  405444:	aa0203e1 	mov	x1, x2
  405448:	93407ea0 	sxtw	x0, w21
  40544c:	aa1403e2 	mov	x2, x20
  405450:	d2800103 	mov	x3, #0x8                   	// #8
  405454:	d28010e8 	mov	x8, #0x87                  	// #135
  405458:	d4000001 	svc	#0x0
  40545c:	b140041f 	cmn	x0, #0x1, lsl #12
  405460:	54000348 	b.hi	4054c8 <__sigprocmask+0xd0>  // b.pmore
  405464:	91286273 	add	x19, x19, #0xa18
  405468:	f9405fa2 	ldr	x2, [x29, #184]
  40546c:	f9400261 	ldr	x1, [x19]
  405470:	ca010041 	eor	x1, x2, x1
  405474:	b5000381 	cbnz	x1, 4054e4 <__sigprocmask+0xec>
  405478:	a94153f3 	ldp	x19, x20, [sp, #16]
  40547c:	f94013f5 	ldr	x21, [sp, #32]
  405480:	a8cc7bfd 	ldp	x29, x30, [sp], #192
  405484:	d65f03c0 	ret
  405488:	d2801002 	mov	x2, #0x80                  	// #128
  40548c:	9100e3a0 	add	x0, x29, #0x38
  405490:	97ffeb70 	bl	400250 <.plt+0x10>
  405494:	925ff6d6 	and	x22, x22, #0xfffffffe7fffffff
  405498:	9100e3a2 	add	x2, x29, #0x38
  40549c:	f9001fb6 	str	x22, [x29, #56]
  4054a0:	aa0203e1 	mov	x1, x2
  4054a4:	f94017b6 	ldr	x22, [x29, #40]
  4054a8:	93407ea0 	sxtw	x0, w21
  4054ac:	aa1403e2 	mov	x2, x20
  4054b0:	d2800103 	mov	x3, #0x8                   	// #8
  4054b4:	d28010e8 	mov	x8, #0x87                  	// #135
  4054b8:	d4000001 	svc	#0x0
  4054bc:	b140041f 	cmn	x0, #0x1, lsl #12
  4054c0:	54fffd29 	b.ls	405464 <__sigprocmask+0x6c>  // b.plast
  4054c4:	d503201f 	nop
  4054c8:	900003c1 	adrp	x1, 47d000 <__FRAME_END__+0xf8fc>
  4054cc:	f947c421 	ldr	x1, [x1, #3976]
  4054d0:	d53bd042 	mrs	x2, tpidr_el0
  4054d4:	4b0003e3 	neg	w3, w0
  4054d8:	12800000 	mov	w0, #0xffffffff            	// #-1
  4054dc:	b8216843 	str	w3, [x2, x1]
  4054e0:	17ffffe1 	b	405464 <__sigprocmask+0x6c>
  4054e4:	f90017b6 	str	x22, [x29, #40]
  4054e8:	940052a8 	bl	419f88 <__stack_chk_fail>
  4054ec:	00000000 	.inst	0x00000000 ; undefined

00000000004054f0 <abort>:
  4054f0:	a9ac7bfd 	stp	x29, x30, [sp, #-320]!
  4054f4:	900003c1 	adrp	x1, 47d000 <__FRAME_END__+0xf8fc>
  4054f8:	91286021 	add	x1, x1, #0xa18
  4054fc:	910003fd 	mov	x29, sp
  405500:	a90153f3 	stp	x19, x20, [sp, #16]
  405504:	f00003d3 	adrp	x19, 480000 <locale_alias_path.10139>
  405508:	91002260 	add	x0, x19, #0x8
  40550c:	f9400022 	ldr	x2, [x1]
  405510:	f9009fa2 	str	x2, [x29, #312]
  405514:	d2800002 	mov	x2, #0x0                   	// #0
  405518:	d53bd054 	mrs	x20, tpidr_el0
  40551c:	d11bc294 	sub	x20, x20, #0x6f0
  405520:	f9400401 	ldr	x1, [x0, #8]
  405524:	eb14003f 	cmp	x1, x20
  405528:	54000140 	b.eq	405550 <abort+0x60>  // b.none
  40552c:	52800021 	mov	w1, #0x1                   	// #1
  405530:	885ffc02 	ldaxr	w2, [x0]
  405534:	35000062 	cbnz	w2, 405540 <abort+0x50>
  405538:	88037c01 	stxr	w3, w1, [x0]
  40553c:	35ffffa3 	cbnz	w3, 405530 <abort+0x40>
  405540:	7100005f 	cmp	w2, #0x0
  405544:	54000e61 	b.ne	405710 <abort+0x220>  // b.any
  405548:	91002260 	add	x0, x19, #0x8
  40554c:	f9000414 	str	x20, [x0, #8]
  405550:	91002261 	add	x1, x19, #0x8
  405554:	b9400422 	ldr	w2, [x1, #4]
  405558:	b9401020 	ldr	w0, [x1, #16]
  40555c:	11000442 	add	w2, w2, #0x1
  405560:	b9000422 	str	w2, [x1, #4]
  405564:	35000220 	cbnz	w0, 4055a8 <abort+0xb8>
  405568:	910063a3 	add	x3, x29, #0x18
  40556c:	910263a0 	add	x0, x29, #0x98
  405570:	52800022 	mov	w2, #0x1                   	// #1
  405574:	b9001022 	str	w2, [x1, #16]
  405578:	f81f841f 	str	xzr, [x0], #-8
  40557c:	eb03001f 	cmp	x0, x3
  405580:	54ffffc1 	b.ne	405578 <abort+0x88>  // b.any
  405584:	f94013a3 	ldr	x3, [x29, #32]
  405588:	d2800002 	mov	x2, #0x0                   	// #0
  40558c:	910083a1 	add	x1, x29, #0x20
  405590:	52800020 	mov	w0, #0x1                   	// #1
  405594:	b27b0063 	orr	x3, x3, #0x20
  405598:	f90013a3 	str	x3, [x29, #32]
  40559c:	97ffff97 	bl	4053f8 <__sigprocmask>
  4055a0:	91002260 	add	x0, x19, #0x8
  4055a4:	b9401000 	ldr	w0, [x0, #16]
  4055a8:	7100041f 	cmp	w0, #0x1
  4055ac:	540003c0 	b.eq	405624 <abort+0x134>  // b.none
  4055b0:	7100081f 	cmp	w0, #0x2
  4055b4:	540006c0 	b.eq	40568c <abort+0x19c>  // b.none
  4055b8:	71000c1f 	cmp	w0, #0x3
  4055bc:	54000260 	b.eq	405608 <abort+0x118>  // b.none
  4055c0:	7100101f 	cmp	w0, #0x4
  4055c4:	54000160 	b.eq	4055f0 <abort+0x100>  // b.none
  4055c8:	7100141f 	cmp	w0, #0x5
  4055cc:	54000080 	b.eq	4055dc <abort+0xec>  // b.none
  4055d0:	d4207d00 	brk	#0x3e8
  4055d4:	d4207d00 	brk	#0x3e8
  4055d8:	17fffffe 	b	4055d0 <abort+0xe0>
  4055dc:	91002273 	add	x19, x19, #0x8
  4055e0:	528000c1 	mov	w1, #0x6                   	// #6
  4055e4:	52800fe0 	mov	w0, #0x7f                  	// #127
  4055e8:	b9001261 	str	w1, [x19, #16]
  4055ec:	9400474f 	bl	417328 <_exit>
  4055f0:	91002260 	add	x0, x19, #0x8
  4055f4:	528000a1 	mov	w1, #0x5                   	// #5
  4055f8:	b9001001 	str	w1, [x0, #16]
  4055fc:	d4207d00 	brk	#0x3e8
  405600:	b9401000 	ldr	w0, [x0, #16]
  405604:	17fffff1 	b	4055c8 <abort+0xd8>
  405608:	91002274 	add	x20, x19, #0x8
  40560c:	52800081 	mov	w1, #0x4                   	// #4
  405610:	528000c0 	mov	w0, #0x6                   	// #6
  405614:	b9001281 	str	w1, [x20, #16]
  405618:	97ffff3e 	bl	405310 <raise>
  40561c:	b9401280 	ldr	w0, [x20, #16]
  405620:	17ffffe8 	b	4055c0 <abort+0xd0>
  405624:	91002260 	add	x0, x19, #0x8
  405628:	b9400401 	ldr	w1, [x0, #4]
  40562c:	b900101f 	str	wzr, [x0, #16]
  405630:	51000421 	sub	w1, w1, #0x1
  405634:	b9000401 	str	w1, [x0, #4]
  405638:	34000541 	cbz	w1, 4056e0 <abort+0x1f0>
  40563c:	528000c0 	mov	w0, #0x6                   	// #6
  405640:	97ffff34 	bl	405310 <raise>
  405644:	91002260 	add	x0, x19, #0x8
  405648:	f9400401 	ldr	x1, [x0, #8]
  40564c:	eb14003f 	cmp	x1, x20
  405650:	54000160 	b.eq	40567c <abort+0x18c>  // b.none
  405654:	52800021 	mov	w1, #0x1                   	// #1
  405658:	885ffc02 	ldaxr	w2, [x0]
  40565c:	35000062 	cbnz	w2, 405668 <abort+0x178>
  405660:	88037c01 	stxr	w3, w1, [x0]
  405664:	35ffffa3 	cbnz	w3, 405658 <abort+0x168>
  405668:	7100005f 	cmp	w2, #0x0
  40566c:	54000040 	b.eq	405674 <abort+0x184>  // b.none
  405670:	94005156 	bl	419bc8 <__lll_lock_wait_private>
  405674:	91002260 	add	x0, x19, #0x8
  405678:	f9000414 	str	x20, [x0, #8]
  40567c:	91002261 	add	x1, x19, #0x8
  405680:	b9400420 	ldr	w0, [x1, #4]
  405684:	11000400 	add	w0, w0, #0x1
  405688:	b9000420 	str	w0, [x1, #4]
  40568c:	910283a3 	add	x3, x29, #0xa0
  405690:	91002264 	add	x4, x19, #0x8
  405694:	52800065 	mov	w5, #0x3                   	// #3
  405698:	52800001 	mov	w1, #0x0                   	// #0
  40569c:	aa0303e0 	mov	x0, x3
  4056a0:	d2801302 	mov	x2, #0x98                  	// #152
  4056a4:	b9001085 	str	w5, [x4, #16]
  4056a8:	97ffeaee 	bl	400260 <.plt+0x20>
  4056ac:	aa0003e3 	mov	x3, x0
  4056b0:	91020001 	add	x1, x0, #0x80
  4056b4:	92800000 	mov	x0, #0xffffffffffffffff    	// #-1
  4056b8:	f81f8420 	str	x0, [x1], #-8
  4056bc:	eb03003f 	cmp	x1, x3
  4056c0:	54ffffc1 	b.ne	4056b8 <abort+0x1c8>  // b.any
  4056c4:	d2800002 	mov	x2, #0x0                   	// #0
  4056c8:	528000c0 	mov	w0, #0x6                   	// #6
  4056cc:	b9012bbf 	str	wzr, [x29, #296]
  4056d0:	94007f44 	bl	4253e0 <__sigaction>
  4056d4:	91002260 	add	x0, x19, #0x8
  4056d8:	b9401000 	ldr	w0, [x0, #16]
  4056dc:	17ffffb7 	b	4055b8 <abort+0xc8>
  4056e0:	f900041f 	str	xzr, [x0, #8]
  4056e4:	885f7c02 	ldxr	w2, [x0]
  4056e8:	8803fc01 	stlxr	w3, w1, [x0]
  4056ec:	35ffffc3 	cbnz	w3, 4056e4 <abort+0x1f4>
  4056f0:	7100045f 	cmp	w2, #0x1
  4056f4:	54fffa4d 	b.le	40563c <abort+0x14c>
  4056f8:	d2801021 	mov	x1, #0x81                  	// #129
  4056fc:	d2800022 	mov	x2, #0x1                   	// #1
  405700:	d2800003 	mov	x3, #0x0                   	// #0
  405704:	d2800c48 	mov	x8, #0x62                  	// #98
  405708:	d4000001 	svc	#0x0
  40570c:	17ffffcc 	b	40563c <abort+0x14c>
  405710:	9400512e 	bl	419bc8 <__lll_lock_wait_private>
  405714:	17ffff8d 	b	405548 <abort+0x58>

0000000000405718 <msort_with_tmp.part.0>:
  405718:	a9b87bfd 	stp	x29, x30, [sp, #-128]!
  40571c:	910003fd 	mov	x29, sp
  405720:	a90573fb 	stp	x27, x28, [sp, #80]
  405724:	f940001c 	ldr	x28, [x0]
  405728:	a9046bf9 	stp	x25, x26, [sp, #64]
  40572c:	d341fc59 	lsr	x25, x2, #1
  405730:	a90153f3 	stp	x19, x20, [sp, #16]
  405734:	aa0103fa 	mov	x26, x1
  405738:	a9025bf5 	stp	x21, x22, [sp, #32]
  40573c:	cb19005b 	sub	x27, x2, x25
  405740:	a90363f7 	stp	x23, x24, [sp, #48]
  405744:	aa0003f5 	mov	x21, x0
  405748:	f9003ba2 	str	x2, [x29, #112]
  40574c:	f100073f 	cmp	x25, #0x1
  405750:	9b1c073c 	madd	x28, x25, x28, x1
  405754:	54000fe8 	b.hi	405950 <msort_with_tmp.part.0+0x238>  // b.pmore
  405758:	f100077f 	cmp	x27, #0x1
  40575c:	54000f08 	b.hi	40593c <msort_with_tmp.part.0+0x224>  // b.pmore
  405760:	a94002b6 	ldp	x22, x0, [x21]
  405764:	f100037f 	cmp	x27, #0x0
  405768:	1a9f07e1 	cset	w1, ne  // ne = any
  40576c:	f100033f 	cmp	x25, #0x0
  405770:	1a9f1021 	csel	w1, w1, wzr, ne  // ne = any
  405774:	f94012b3 	ldr	x19, [x21, #32]
  405778:	a9415eb8 	ldp	x24, x23, [x21, #16]
  40577c:	f100041f 	cmp	x0, #0x1
  405780:	54001220 	b.eq	4059c4 <msort_with_tmp.part.0+0x2ac>  // b.none
  405784:	b4000ec0 	cbz	x0, 40595c <msort_with_tmp.part.0+0x244>
  405788:	f100081f 	cmp	x0, #0x2
  40578c:	54000880 	b.eq	40589c <msort_with_tmp.part.0+0x184>  // b.none
  405790:	aa1a03f4 	mov	x20, x26
  405794:	f1000c1f 	cmp	x0, #0x3
  405798:	540004e1 	b.ne	405834 <msort_with_tmp.part.0+0x11c>  // b.any
  40579c:	350002a1 	cbnz	w1, 4057f0 <msort_with_tmp.part.0+0xd8>
  4057a0:	b5000759 	cbnz	x25, 405888 <msort_with_tmp.part.0+0x170>
  4057a4:	f9403ba0 	ldr	x0, [x29, #112]
  4057a8:	a94153f3 	ldp	x19, x20, [sp, #16]
  4057ac:	cb1b0002 	sub	x2, x0, x27
  4057b0:	a94363f7 	ldp	x23, x24, [sp, #48]
  4057b4:	aa1a03e0 	mov	x0, x26
  4057b8:	f94012a1 	ldr	x1, [x21, #32]
  4057bc:	9b167c42 	mul	x2, x2, x22
  4057c0:	a9425bf5 	ldp	x21, x22, [sp, #32]
  4057c4:	a9446bf9 	ldp	x25, x26, [sp, #64]
  4057c8:	a94573fb 	ldp	x27, x28, [sp, #80]
  4057cc:	a8c87bfd 	ldp	x29, x30, [sp], #128
  4057d0:	17ffeaa0 	b	400250 <.plt+0x10>
  4057d4:	f8408780 	ldr	x0, [x28], #8
  4057d8:	d100077b 	sub	x27, x27, #0x1
  4057dc:	f9000260 	str	x0, [x19]
  4057e0:	f100033f 	cmp	x25, #0x0
  4057e4:	91002273 	add	x19, x19, #0x8
  4057e8:	fa401b64 	ccmp	x27, #0x0, #0x4, ne  // ne = any
  4057ec:	54fffda0 	b.eq	4057a0 <msort_with_tmp.part.0+0x88>  // b.none
  4057f0:	f9400280 	ldr	x0, [x20]
  4057f4:	aa1703e2 	mov	x2, x23
  4057f8:	f9400381 	ldr	x1, [x28]
  4057fc:	d63f0300 	blr	x24
  405800:	7100001f 	cmp	w0, #0x0
  405804:	54fffe8c 	b.gt	4057d4 <msort_with_tmp.part.0+0xbc>
  405808:	f8408680 	ldr	x0, [x20], #8
  40580c:	d1000739 	sub	x25, x25, #0x1
  405810:	f9000260 	str	x0, [x19]
  405814:	17fffff3 	b	4057e0 <msort_with_tmp.part.0+0xc8>
  405818:	aa1403e1 	mov	x1, x20
  40581c:	aa1303e0 	mov	x0, x19
  405820:	aa1603e2 	mov	x2, x22
  405824:	8b160294 	add	x20, x20, x22
  405828:	940040fe 	bl	415c20 <__mempcpy>
  40582c:	d1000739 	sub	x25, x25, #0x1
  405830:	aa0003f3 	mov	x19, x0
  405834:	f100033f 	cmp	x25, #0x0
  405838:	aa1703e2 	mov	x2, x23
  40583c:	fa401b64 	ccmp	x27, #0x0, #0x4, ne  // ne = any
  405840:	54fffb00 	b.eq	4057a0 <msort_with_tmp.part.0+0x88>  // b.none
  405844:	aa1c03e1 	mov	x1, x28
  405848:	aa1403e0 	mov	x0, x20
  40584c:	d63f0300 	blr	x24
  405850:	7100001f 	cmp	w0, #0x0
  405854:	54fffe2d 	b.le	405818 <msort_with_tmp.part.0+0x100>
  405858:	aa1c03e1 	mov	x1, x28
  40585c:	aa1603e2 	mov	x2, x22
  405860:	aa1303e0 	mov	x0, x19
  405864:	940040ef 	bl	415c20 <__mempcpy>
  405868:	d100077b 	sub	x27, x27, #0x1
  40586c:	f100033f 	cmp	x25, #0x0
  405870:	8b16039c 	add	x28, x28, x22
  405874:	aa0003f3 	mov	x19, x0
  405878:	aa1703e2 	mov	x2, x23
  40587c:	fa401b64 	ccmp	x27, #0x0, #0x4, ne  // ne = any
  405880:	54fffe21 	b.ne	405844 <msort_with_tmp.part.0+0x12c>  // b.any
  405884:	b4fff919 	cbz	x25, 4057a4 <msort_with_tmp.part.0+0x8c>
  405888:	9b197ec2 	mul	x2, x22, x25
  40588c:	aa1403e1 	mov	x1, x20
  405890:	aa1303e0 	mov	x0, x19
  405894:	97ffea6f 	bl	400250 <.plt+0x10>
  405898:	17ffffc3 	b	4057a4 <msort_with_tmp.part.0+0x8c>
  40589c:	aa1a03f4 	mov	x20, x26
  4058a0:	d2800100 	mov	x0, #0x8                   	// #8
  4058a4:	cb160000 	sub	x0, x0, x22
  4058a8:	f90037a0 	str	x0, [x29, #104]
  4058ac:	d503201f 	nop
  4058b0:	f100033f 	cmp	x25, #0x0
  4058b4:	fa401b64 	ccmp	x27, #0x0, #0x4, ne  // ne = any
  4058b8:	54fff740 	b.eq	4057a0 <msort_with_tmp.part.0+0x88>  // b.none
  4058bc:	8b160264 	add	x4, x19, x22
  4058c0:	f9003fa4 	str	x4, [x29, #120]
  4058c4:	aa1703e2 	mov	x2, x23
  4058c8:	aa1c03e1 	mov	x1, x28
  4058cc:	aa1403e0 	mov	x0, x20
  4058d0:	d63f0300 	blr	x24
  4058d4:	7100001f 	cmp	w0, #0x0
  4058d8:	f9403fa4 	ldr	x4, [x29, #120]
  4058dc:	5400028d 	b.le	40592c <msort_with_tmp.part.0+0x214>
  4058e0:	aa1c03e3 	mov	x3, x28
  4058e4:	d100077b 	sub	x27, x27, #0x1
  4058e8:	8b16039c 	add	x28, x28, x22
  4058ec:	eb04027f 	cmp	x19, x4
  4058f0:	540001a2 	b.cs	405924 <msort_with_tmp.part.0+0x20c>  // b.hs, b.nlast
  4058f4:	f94037a0 	ldr	x0, [x29, #104]
  4058f8:	d28000e1 	mov	x1, #0x7                   	// #7
  4058fc:	cb000021 	sub	x1, x1, x0
  405900:	d2800000 	mov	x0, #0x0                   	// #0
  405904:	927df021 	and	x1, x1, #0xfffffffffffffff8
  405908:	91002021 	add	x1, x1, #0x8
  40590c:	d503201f 	nop
  405910:	f8606862 	ldr	x2, [x3, x0]
  405914:	f8206a62 	str	x2, [x19, x0]
  405918:	91002000 	add	x0, x0, #0x8
  40591c:	eb00003f 	cmp	x1, x0
  405920:	54ffff81 	b.ne	405910 <msort_with_tmp.part.0+0x1f8>  // b.any
  405924:	aa0403f3 	mov	x19, x4
  405928:	17ffffe2 	b	4058b0 <msort_with_tmp.part.0+0x198>
  40592c:	aa1403e3 	mov	x3, x20
  405930:	d1000739 	sub	x25, x25, #0x1
  405934:	8b160294 	add	x20, x20, x22
  405938:	17ffffed 	b	4058ec <msort_with_tmp.part.0+0x1d4>
  40593c:	aa1b03e2 	mov	x2, x27
  405940:	aa1c03e1 	mov	x1, x28
  405944:	aa1503e0 	mov	x0, x21
  405948:	97ffff74 	bl	405718 <msort_with_tmp.part.0>
  40594c:	17ffff85 	b	405760 <msort_with_tmp.part.0+0x48>
  405950:	aa1903e2 	mov	x2, x25
  405954:	97ffff71 	bl	405718 <msort_with_tmp.part.0>
  405958:	17ffff80 	b	405758 <msort_with_tmp.part.0+0x40>
  40595c:	aa1a03f4 	mov	x20, x26
  405960:	34fff201 	cbz	w1, 4057a0 <msort_with_tmp.part.0+0x88>
  405964:	aa1c03e1 	mov	x1, x28
  405968:	aa1403e0 	mov	x0, x20
  40596c:	aa1703e2 	mov	x2, x23
  405970:	d63f0300 	blr	x24
  405974:	7100001f 	cmp	w0, #0x0
  405978:	540001ed 	b.le	4059b4 <msort_with_tmp.part.0+0x29c>
  40597c:	d503201f 	nop
  405980:	b8404780 	ldr	w0, [x28], #4
  405984:	d100077b 	sub	x27, x27, #0x1
  405988:	b9000260 	str	w0, [x19]
  40598c:	f100033f 	cmp	x25, #0x0
  405990:	91001273 	add	x19, x19, #0x4
  405994:	fa401b64 	ccmp	x27, #0x0, #0x4, ne  // ne = any
  405998:	54fff040 	b.eq	4057a0 <msort_with_tmp.part.0+0x88>  // b.none
  40599c:	aa1c03e1 	mov	x1, x28
  4059a0:	aa1403e0 	mov	x0, x20
  4059a4:	aa1703e2 	mov	x2, x23
  4059a8:	d63f0300 	blr	x24
  4059ac:	7100001f 	cmp	w0, #0x0
  4059b0:	54fffe8c 	b.gt	405980 <msort_with_tmp.part.0+0x268>
  4059b4:	b8404680 	ldr	w0, [x20], #4
  4059b8:	d1000739 	sub	x25, x25, #0x1
  4059bc:	b9000260 	str	w0, [x19]
  4059c0:	17fffff3 	b	40598c <msort_with_tmp.part.0+0x274>
  4059c4:	aa1a03f4 	mov	x20, x26
  4059c8:	34ffeec1 	cbz	w1, 4057a0 <msort_with_tmp.part.0+0x88>
  4059cc:	aa1c03e1 	mov	x1, x28
  4059d0:	aa1403e0 	mov	x0, x20
  4059d4:	aa1703e2 	mov	x2, x23
  4059d8:	d63f0300 	blr	x24
  4059dc:	7100001f 	cmp	w0, #0x0
  4059e0:	540001ed 	b.le	405a1c <msort_with_tmp.part.0+0x304>
  4059e4:	d503201f 	nop
  4059e8:	f8408780 	ldr	x0, [x28], #8
  4059ec:	d100077b 	sub	x27, x27, #0x1
  4059f0:	f9000260 	str	x0, [x19]
  4059f4:	f100033f 	cmp	x25, #0x0
  4059f8:	91002273 	add	x19, x19, #0x8
  4059fc:	fa401b64 	ccmp	x27, #0x0, #0x4, ne  // ne = any
  405a00:	54ffed00 	b.eq	4057a0 <msort_with_tmp.part.0+0x88>  // b.none
  405a04:	aa1c03e1 	mov	x1, x28
  405a08:	aa1403e0 	mov	x0, x20
  405a0c:	aa1703e2 	mov	x2, x23
  405a10:	d63f0300 	blr	x24
  405a14:	7100001f 	cmp	w0, #0x0
  405a18:	54fffe8c 	b.gt	4059e8 <msort_with_tmp.part.0+0x2d0>
  405a1c:	f8408680 	ldr	x0, [x20], #8
  405a20:	d1000739 	sub	x25, x25, #0x1
